
Tetris_2.elf:     file format elf32-littlenios2
Tetris_2.elf
architecture: nios2:r1, flags 0x00000112:
EXEC_P, HAS_SYMS, D_PAGED
start address 0x08000230

Program Header:
    LOAD off    0x00001000 vaddr 0x08000000 paddr 0x08000000 align 2**12
         filesz 0x00000020 memsz 0x00000020 flags r-x
    LOAD off    0x00001020 vaddr 0x08000020 paddr 0x08000020 align 2**12
         filesz 0x00017f80 memsz 0x00017f80 flags r-x
    LOAD off    0x00018fa0 vaddr 0x08017fa0 paddr 0x08019cb0 align 2**12
         filesz 0x00001d10 memsz 0x00001d10 flags rw-
    LOAD off    0x0001b9c0 vaddr 0x0801b9c0 paddr 0x0801b9c0 align 2**12
         filesz 0x00000000 memsz 0x00000624 flags rw-

Sections:
Idx Name          Size      VMA       LMA       File off  Algn
  0 .entry        00000020  08000000  08000000  00001000  2**5
                  CONTENTS, ALLOC, LOAD, READONLY, CODE
  1 .exceptions   00000210  08000020  08000020  00001020  2**2
                  CONTENTS, ALLOC, LOAD, READONLY, CODE
  2 .text         000177d0  08000230  08000230  00001230  2**2
                  CONTENTS, ALLOC, LOAD, READONLY, CODE
  3 .rodata       000005a0  08017a00  08017a00  00018a00  2**2
                  CONTENTS, ALLOC, LOAD, READONLY, DATA
  4 .rwdata       00001d10  08017fa0  08019cb0  00018fa0  2**2
                  CONTENTS, ALLOC, LOAD, DATA, SMALL_DATA
  5 .bss          00000624  0801b9c0  0801b9c0  0001b9c0  2**2
                  ALLOC, SMALL_DATA
  6 .onchip_memory2_0 00000000  00000000  00000000  0001acb0  2**0
                  CONTENTS
  7 .sdram        00000000  0801bfe4  0801bfe4  0001acb0  2**0
                  CONTENTS
  8 .comment      00000023  00000000  00000000  0001acb0  2**0
                  CONTENTS, READONLY
  9 .debug_aranges 00001090  00000000  00000000  0001acd8  2**3
                  CONTENTS, READONLY, DEBUGGING
 10 .debug_info   0002a788  00000000  00000000  0001bd68  2**0
                  CONTENTS, READONLY, DEBUGGING
 11 .debug_abbrev 0000a802  00000000  00000000  000464f0  2**0
                  CONTENTS, READONLY, DEBUGGING
 12 .debug_line   0000e076  00000000  00000000  00050cf2  2**0
                  CONTENTS, READONLY, DEBUGGING
 13 .debug_frame  00002b90  00000000  00000000  0005ed68  2**2
                  CONTENTS, READONLY, DEBUGGING
 14 .debug_str    0000466a  00000000  00000000  000618f8  2**0
                  CONTENTS, READONLY, DEBUGGING
 15 .debug_loc    0001cba1  00000000  00000000  00065f62  2**0
                  CONTENTS, READONLY, DEBUGGING
 16 .debug_alt_sim_info 00000040  00000000  00000000  00082b04  2**2
                  CONTENTS, READONLY, DEBUGGING
 17 .debug_ranges 00001b00  00000000  00000000  00082b48  2**3
                  CONTENTS, READONLY, DEBUGGING
 18 .thread_model 00000003  00000000  00000000  0008829e  2**0
                  CONTENTS, READONLY
 19 .cpu          0000000c  00000000  00000000  000882a1  2**0
                  CONTENTS, READONLY
 20 .qsys         00000001  00000000  00000000  000882ad  2**0
                  CONTENTS, READONLY
 21 .simulation_enabled 00000001  00000000  00000000  000882ae  2**0
                  CONTENTS, READONLY
 22 .sysid_hash   00000004  00000000  00000000  000882af  2**0
                  CONTENTS, READONLY
 23 .sysid_base   00000004  00000000  00000000  000882b3  2**0
                  CONTENTS, READONLY
 24 .sysid_time   00000004  00000000  00000000  000882b7  2**0
                  CONTENTS, READONLY
 25 .stderr_dev   0000000b  00000000  00000000  000882bb  2**0
                  CONTENTS, READONLY
 26 .stdin_dev    0000000b  00000000  00000000  000882c6  2**0
                  CONTENTS, READONLY
 27 .stdout_dev   0000000b  00000000  00000000  000882d1  2**0
                  CONTENTS, READONLY
 28 .sopc_system_name 00000008  00000000  00000000  000882dc  2**0
                  CONTENTS, READONLY
 29 .quartus_project_dir 00000034  00000000  00000000  000882e4  2**0
                  CONTENTS, READONLY
 30 .jdi          00004f22  00000000  00000000  00088318  2**0
                  CONTENTS, READONLY
 31 .sopcinfo     0008af82  00000000  00000000  0008d23a  2**0
                  CONTENTS, READONLY
SYMBOL TABLE:
08000000 l    d  .entry	00000000 .entry
08000020 l    d  .exceptions	00000000 .exceptions
08000230 l    d  .text	00000000 .text
08017a00 l    d  .rodata	00000000 .rodata
08017fa0 l    d  .rwdata	00000000 .rwdata
0801b9c0 l    d  .bss	00000000 .bss
00000000 l    d  .onchip_memory2_0	00000000 .onchip_memory2_0
0801bfe4 l    d  .sdram	00000000 .sdram
00000000 l    d  .comment	00000000 .comment
00000000 l    d  .debug_aranges	00000000 .debug_aranges
00000000 l    d  .debug_info	00000000 .debug_info
00000000 l    d  .debug_abbrev	00000000 .debug_abbrev
00000000 l    d  .debug_line	00000000 .debug_line
00000000 l    d  .debug_frame	00000000 .debug_frame
00000000 l    d  .debug_str	00000000 .debug_str
00000000 l    d  .debug_loc	00000000 .debug_loc
00000000 l    d  .debug_alt_sim_info	00000000 .debug_alt_sim_info
00000000 l    d  .debug_ranges	00000000 .debug_ranges
00000000 l    df *ABS*	00000000 ../Tetris_2_bsp//obj/HAL/src/crt0.o
08000268 l       .text	00000000 alt_after_alt_main
00000000 l    df *ABS*	00000000 alt_irq_handler.c
00000000 l    df *ABS*	00000000 alt_instruction_exception_entry.c
00000000 l    df *ABS*	00000000 main.c
08019c5c l     O .rwdata	00000001 addr
08019c60 l     O .rwdata	00000004 vga_ctrl
08017fa0 l     O .rwdata	00000170 colors
00000000 l    df *ABS*	00000000 HID.c
00000000 l    df *ABS*	00000000 MAX3421E.c
00000000 l    df *ABS*	00000000 transfer.c
0801b9dc l     O .bss	00000004 usb_delay.2608
0801b9e0 l     O .bss	00000001 tmp_addr.2609
00000000 l    df *ABS*	00000000 lib2-divmod.c
00000000 l    df *ABS*	00000000 lib2-mul.c
00000000 l    df *ABS*	00000000 memcpy.c
00000000 l    df *ABS*	00000000 printf.c
00000000 l    df *ABS*	00000000 puts.c
00000000 l    df *ABS*	00000000 rand.c
00000000 l    df *ABS*	00000000 sprintf.c
00000000 l    df *ABS*	00000000 strlen.c
00000000 l    df *ABS*	00000000 vfprintf.c
08017ca6 l     O .rodata	00000010 zeroes.4389
08017cb6 l     O .rodata	00000010 blanks.4388
00000000 l    df *ABS*	00000000 time.c
00000000 l    df *ABS*	00000000 vfprintf.c
08017cc6 l     O .rodata	00000010 zeroes.4404
08008ec0 l     F .text	000000bc __sbprintf
08017cd6 l     O .rodata	00000010 blanks.4403
00000000 l    df *ABS*	00000000 wsetup.c
00000000 l    df *ABS*	00000000 dtoa.c
080090d0 l     F .text	00000228 quorem
00000000 l    df *ABS*	00000000 fflush.c
00000000 l    df *ABS*	00000000 findfp.c
0800ac28 l     F .text	00000008 __fp_unlock
0800ac3c l     F .text	0000019c __sinit.part.1
0800add8 l     F .text	00000008 __fp_lock
00000000 l    df *ABS*	00000000 mallocr.c
00000000 l    df *ABS*	00000000 fvwrite.c
00000000 l    df *ABS*	00000000 fwalk.c
00000000 l    df *ABS*	00000000 gettimeofdayr.c
00000000 l    df *ABS*	00000000 impure.c
080181b0 l     O .rwdata	00000424 impure_data
00000000 l    df *ABS*	00000000 int_errno.c
00000000 l    df *ABS*	00000000 locale.c
080185f4 l     O .rwdata	00000020 lc_ctype_charset
080185d4 l     O .rwdata	00000020 lc_message_charset
08018614 l     O .rwdata	00000038 lconv
00000000 l    df *ABS*	00000000 makebuf.c
00000000 l    df *ABS*	00000000 mallocr.c
00000000 l    df *ABS*	00000000 memchr.c
00000000 l    df *ABS*	00000000 memmove.c
00000000 l    df *ABS*	00000000 memset.c
00000000 l    df *ABS*	00000000 mprec.c
08017d08 l     O .rodata	0000000c p05.2768
00000000 l    df *ABS*	00000000 mallocr.c
00000000 l    df *ABS*	00000000 s_fpclassify.c
00000000 l    df *ABS*	00000000 sbrkr.c
00000000 l    df *ABS*	00000000 stdio.c
00000000 l    df *ABS*	00000000 strcmp.c
00000000 l    df *ABS*	00000000 vfprintf.c
08017e2c l     O .rodata	00000010 zeroes.4333
08017e3c l     O .rodata	00000010 blanks.4332
00000000 l    df *ABS*	00000000 vfprintf.c
0800f730 l     F .text	000000fc __sprint_r.part.0
08017e4c l     O .rodata	00000010 zeroes.4349
08010d6c l     F .text	000000bc __sbprintf
08017e5c l     O .rodata	00000010 blanks.4348
00000000 l    df *ABS*	00000000 writer.c
00000000 l    df *ABS*	00000000 closer.c
00000000 l    df *ABS*	00000000 mallocr.c
00000000 l    df *ABS*	00000000 fclose.c
00000000 l    df *ABS*	00000000 fputwc.c
00000000 l    df *ABS*	00000000 fstatr.c
00000000 l    df *ABS*	00000000 isattyr.c
00000000 l    df *ABS*	00000000 lseekr.c
00000000 l    df *ABS*	00000000 readr.c
00000000 l    df *ABS*	00000000 wbuf.c
00000000 l    df *ABS*	00000000 wcrtomb.c
00000000 l    df *ABS*	00000000 wctomb_r.c
00000000 l    df *ABS*	00000000 libgcc2.c
00000000 l    df *ABS*	00000000 libgcc2.c
00000000 l    df *ABS*	00000000 libgcc2.c
00000000 l    df *ABS*	00000000 adddf3.c
00000000 l    df *ABS*	00000000 divdf3.c
00000000 l    df *ABS*	00000000 eqdf2.c
00000000 l    df *ABS*	00000000 gedf2.c
00000000 l    df *ABS*	00000000 ledf2.c
00000000 l    df *ABS*	00000000 muldf3.c
00000000 l    df *ABS*	00000000 subdf3.c
00000000 l    df *ABS*	00000000 fixdfsi.c
00000000 l    df *ABS*	00000000 floatsidf.c
00000000 l    df *ABS*	00000000 floatunsidf.c
00000000 l    df *ABS*	00000000 libgcc2.c
00000000 l    df *ABS*	00000000 libgcc2.c
00000000 l    df *ABS*	00000000 alt_close.c
08014ce4 l     F .text	0000003c alt_get_errno
00000000 l    df *ABS*	00000000 alt_dev.c
08014df8 l     F .text	0000002c alt_dev_null_write
00000000 l    df *ABS*	00000000 alt_errno.c
00000000 l    df *ABS*	00000000 alt_fstat.c
08014e24 l     F .text	0000003c alt_get_errno
00000000 l    df *ABS*	00000000 alt_gettod.c
00000000 l    df *ABS*	00000000 alt_isatty.c
0801510c l     F .text	0000003c alt_get_errno
00000000 l    df *ABS*	00000000 alt_load.c
080151f4 l     F .text	00000068 alt_load_section
00000000 l    df *ABS*	00000000 alt_lseek.c
080152e0 l     F .text	0000003c alt_get_errno
00000000 l    df *ABS*	00000000 alt_main.c
00000000 l    df *ABS*	00000000 alt_malloc_lock.c
00000000 l    df *ABS*	00000000 alt_read.c
080154bc l     F .text	0000003c alt_get_errno
00000000 l    df *ABS*	00000000 alt_release_fd.c
00000000 l    df *ABS*	00000000 alt_sbrk.c
08019ca0 l     O .rwdata	00000004 heap_end
00000000 l    df *ABS*	00000000 alt_tick.c
00000000 l    df *ABS*	00000000 alt_usleep.c
00000000 l    df *ABS*	00000000 alt_write.c
08015904 l     F .text	0000003c alt_get_errno
00000000 l    df *ABS*	00000000 alt_sys_init.c
08015a40 l     F .text	00000034 alt_dev_reg
08018bfc l     O .rwdata	00001060 jtag_uart_0
00000000 l    df *ABS*	00000000 altera_avalon_jtag_uart_fd.c
00000000 l    df *ABS*	00000000 altera_avalon_jtag_uart_init.c
08015d34 l     F .text	0000020c altera_avalon_jtag_uart_irq
08015f40 l     F .text	000000a0 altera_avalon_jtag_uart_timeout
00000000 l    df *ABS*	00000000 altera_avalon_jtag_uart_ioctl.c
00000000 l    df *ABS*	00000000 altera_avalon_jtag_uart_read.c
00000000 l    df *ABS*	00000000 altera_avalon_jtag_uart_write.c
00000000 l    df *ABS*	00000000 altera_avalon_spi.c
00000000 l    df *ABS*	00000000 altera_avalon_timer_sc.c
08016774 l     F .text	00000078 alt_avalon_timer_sc_irq
00000000 l    df *ABS*	00000000 alt_alarm_start.c
00000000 l    df *ABS*	00000000 alt_busy_sleep.c
00000000 l    df *ABS*	00000000 alt_dcache_flush_all.c
00000000 l    df *ABS*	00000000 alt_dev_llist_insert.c
08016b0c l     F .text	0000003c alt_get_errno
00000000 l    df *ABS*	00000000 alt_do_ctors.c
00000000 l    df *ABS*	00000000 alt_do_dtors.c
00000000 l    df *ABS*	00000000 alt_icache_flush_all.c
00000000 l    df *ABS*	00000000 alt_iic.c
00000000 l    df *ABS*	00000000 alt_iic_isr_register.c
00000000 l    df *ABS*	00000000 alt_io_redirect.c
08016f6c l     F .text	000000e4 alt_open_fd
00000000 l    df *ABS*	00000000 alt_irq_vars.c
00000000 l    df *ABS*	00000000 alt_open.c
080170cc l     F .text	0000003c alt_get_errno
08017108 l     F .text	000000ec alt_file_locked
00000000 l    df *ABS*	00000000 altera_nios2_gen2_irq.c
00000000 l    df *ABS*	00000000 alt_find_dev.c
00000000 l    df *ABS*	00000000 alt_find_file.c
00000000 l    df *ABS*	00000000 alt_get_fd.c
00000000 l    df *ABS*	00000000 atexit.c
00000000 l    df *ABS*	00000000 exit.c
00000000 l    df *ABS*	00000000 memcmp.c
00000000 l    df *ABS*	00000000 __atexit.c
00000000 l    df *ABS*	00000000 __call_atexit.c
00000000 l    df *ABS*	00000000 alt_exit.c
0801ba28 g     O .bss	00000004 alt_instruction_exception_handler
0800d804 g     F .text	00000074 _mprec_log10
0800d8f0 g     F .text	0000008c __any_on
08011320 g     F .text	00000054 _isatty_r
08017d14 g     O .rodata	00000028 __mprec_tinytens
080153f8 g     F .text	0000007c alt_main
08019c64 g     O .rwdata	00000008 ctrl_xfers
08004610 g     F .text	000000c0 _puts_r
0801bee4 g     O .bss	00000100 alt_irq
08011374 g     F .text	00000060 _lseek_r
08003a34 g     F .text	00000644 USB_Task
08019cb0 g       *ABS*	00000000 __flash_rwdata_start
080136bc g     F .text	00000088 .hidden __eqdf2
08000d98 g     F .text	000000c8 initGame
0800ba5c g     F .text	0000005c _gettimeofday_r
080009c8 g     F .text	00000224 removeRow
0801bfe4 g       *ABS*	00000000 __alt_heap_start
080045d4 g     F .text	0000003c printf
0801158c g     F .text	0000009c _wcrtomb_r
08002ba8 g     F .text	00000088 kbdPoll
0800e080 g     F .text	0000005c __sseek
0800af88 g     F .text	00000010 __sinit
08011434 g     F .text	00000140 __swbuf_r
0800bab8 g     F .text	0000007c _setlocale_r
0800ade0 g     F .text	00000078 __sfmoreglue
08015498 g     F .text	00000024 __malloc_unlock
0800026c g     F .text	000001f0 GetDriverandReport
0800c640 g     F .text	0000015c memmove
0800af70 g     F .text	00000018 _cleanup
0800c8c4 g     F .text	000000a8 _Balloc
08002cfc g     F .text	00000074 MAXreg_wr
08018180 g     O .rwdata	00000030 ClientDriverTable
08013744 g     F .text	000000dc .hidden __gtdf2
08017350 g     F .text	00000024 altera_nios2_gen2_irq_init
08004078 g     F .text	0000002c MSDProbe
08000000 g     F .entry	0000000c __reset
08003534 g     F .text	000000e8 XferCtrlData
08000020 g       *ABS*	00000000 __flash_exceptions_start
08018110 g     O .rwdata	00000070 pieceNums
0801ba2c g     O .bss	00000010 hid_ep
080112c4 g     F .text	0000005c _fstat_r
0801b9e4 g     O .bss	00000004 errno
0800dffc g     F .text	00000008 __seofread
0800e390 g     F .text	000013a0 ___svfiprintf_internal_r
0801ba14 g     O .bss	00000004 alt_argv
08021c5c g       *ABS*	00000000 _gp
080158d4 g     F .text	00000030 usleep
08002ec8 g     F .text	00000060 MAXreg_rd
08018a7c g     O .rwdata	00000180 alt_fd_list
08002ae0 g     F .text	00000040 HID_init
08017374 g     F .text	00000090 alt_find_dev
0800445c g     F .text	00000148 memcpy
0800ac30 g     F .text	0000000c _cleanup_r
08014afc g     F .text	000000dc .hidden __floatsidf
08017050 g     F .text	0000007c alt_io_redirect
08013820 g     F .text	000000f4 .hidden __ltdf2
08017a00 g       *ABS*	00000000 __DTOR_END__
080046d0 g     F .text	00000014 puts
080175d0 g     F .text	0000009c alt_exception_cause_generated_bad_addr
0800dee0 g     F .text	00000074 __fpclassifyd
0800d760 g     F .text	000000a4 __ratio
08010d50 g     F .text	0000001c __vfiprintf_internal
08016138 g     F .text	0000021c altera_avalon_jtag_uart_read
080045a4 g     F .text	00000030 _printf_r
00000000 g       *ABS*	00000000 __alt_mem_onchip_memory2_0
08004378 g     F .text	00000064 .hidden __udivsi3
08015148 g     F .text	000000ac isatty
08017d64 g     O .rodata	000000c8 __mprec_tens
0800bb34 g     F .text	0000000c __locale_charset
0801ba00 g     O .bss	00000008 alt_timezone
0801b9fc g     O .bss	00000004 __malloc_top_pad
08019c6c g     O .rwdata	00000001 usb_task_state
08019c78 g     O .rwdata	00000004 __mb_cur_max
0800bb64 g     F .text	0000000c _localeconv_r
0800ccf8 g     F .text	0000003c __i2b
0800b40c g     F .text	000004c8 __sfvwrite_r
0800df54 g     F .text	00000054 _sbrk_r
080113d4 g     F .text	00000060 _read_r
080031f0 g     F .text	00000094 MAX3421E_init
08000738 g     F .text	00000034 setKeycode
08019c98 g     O .rwdata	00000004 alt_max_fd
08010fb8 g     F .text	000000f0 _fclose_r
0800abf8 g     F .text	00000030 fflush
0801b9f8 g     O .bss	00000004 __malloc_max_sbrked_mem
08012440 g     F .text	000008ac .hidden __adddf3
0800d508 g     F .text	0000010c __b2d
08011e7c g     F .text	000005c4 .hidden __umoddi3
0801531c g     F .text	000000dc lseek
08019c70 g     O .rwdata	00000004 _global_impure_ptr
0800d97c g     F .text	00000564 _realloc_r
0801bfe4 g       *ABS*	00000000 __bss_end
08016e7c g     F .text	000000f0 alt_iic_isr_register
080157cc g     F .text	00000108 alt_tick
08011880 g     F .text	000005fc .hidden __udivdi3
08011220 g     F .text	00000024 _fputwc_r
08017d3c g     O .rodata	00000028 __mprec_bigtens
0800cadc g     F .text	00000104 __s2b
08014bd8 g     F .text	000000a8 .hidden __floatunsidf
0800d248 g     F .text	00000060 __mcmp
0800afa8 g     F .text	00000018 __fp_lock_all
08016e30 g     F .text	0000004c alt_ic_irq_enabled
08015730 g     F .text	0000009c alt_alarm_stop
0801ba24 g     O .bss	00000004 alt_irq_active
08004140 g     F .text	0000002c DummyProbe
080000fc g     F .exceptions	000000d4 alt_irq_handler
08018a54 g     O .rwdata	00000028 alt_dev_null
08002b20 g     F .text	00000088 mousePoll
08003044 g     F .text	00000024 Vbus_power
08016aec g     F .text	00000020 alt_dcache_flush_all
0800cbe0 g     F .text	00000068 __hi0bits
08014a7c g     F .text	00000080 .hidden __fixdfsi
08019cb0 g       *ABS*	00000000 __ram_rwdata_end
08019c90 g     O .rwdata	00000008 alt_dev_list
08015940 g     F .text	00000100 write
08017fa0 g       *ABS*	00000000 __ram_rodata_end
0801b9e1 g     O .bss	00000001 usb_error
08014e60 g     F .text	000000b8 fstat
08000938 g     F .text	00000090 isUsed
08013820 g     F .text	000000f4 .hidden __ledf2
0800cfc0 g     F .text	00000140 __pow5mult
0800f844 g     F .text	0000150c ___vfiprintf_internal_r
0801b9f0 g     O .bss	00000004 __nlocale_changed
080043dc g     F .text	00000058 .hidden __umodsi3
0801bfe4 g       *ABS*	00000000 end
08015c74 g     F .text	000000c0 altera_avalon_jtag_uart_init
080001d0 g     F .exceptions	00000060 alt_instruction_exception_entry
08003690 g     F .text	0000017c XferDispatchPkt
08017a00 g       *ABS*	00000000 __CTOR_LIST__
0c000000 g       *ABS*	00000000 __alt_stack_pointer
080167ec g     F .text	0000007c alt_avalon_timer_sc_init
08014c80 g     F .text	00000064 .hidden __clzsi2
08016354 g     F .text	00000224 altera_avalon_jtag_uart_write
0800af98 g     F .text	00000004 __sfp_lock_acquire
0800c55c g     F .text	000000e4 memchr
08006bc8 g     F .text	000022dc ___vfprintf_internal_r
080033b4 g     F .text	00000034 MaxGpxHandler
08004760 g     F .text	00000058 _sprintf_r
0800b0fc g     F .text	00000310 _free_r
0800bb40 g     F .text	00000010 __locale_mb_cur_max
0801784c g     F .text	00000180 __call_exitprocs
0801b9ec g     O .bss	00000004 __mlocale_changed
08019c7c g     O .rwdata	00000004 __malloc_sbrk_base
08000230 g     F .text	0000003c _start
0801ba1c g     O .bss	00000004 _alt_tick_rate
08002f28 g     F .text	0000007c MAXbytes_rd
080046fc g     F .text	00000064 rand
0800d100 g     F .text	00000148 __lshift
08016578 g     F .text	000001fc alt_avalon_spi_command
0801ba20 g     O .bss	00000004 _alt_nticks
080154f8 g     F .text	00000104 read
08015aac g     F .text	00000064 alt_sys_init
0800e1c0 g     F .text	000001d0 __ssprint_r
0801be9c g     O .bss	00000048 devtable
08017734 g     F .text	00000118 __register_exitproc
080026d8 g     F .text	00000408 HIDKProbe
0801ba3c g     O .bss	00000018 msd_ep
0800cd34 g     F .text	0000028c __multiply
08015fe0 g     F .text	00000068 altera_avalon_jtag_uart_close
0800399c g     F .text	00000098 USB_init
0801bd9c g     O .bss	00000100 bigbuf
08004434 g     F .text	00000028 .hidden __mulsi3
08017fa0 g       *ABS*	00000000 __ram_rwdata_start
08017a00 g       *ABS*	00000000 __ram_rodata_start
0801ba54 g     O .bss	00000028 __malloc_current_mallinfo
0801b9d8 g     O .bss	00000001 last_usb_task_state
0800d614 g     F .text	0000014c __d2b
0801b9d0 g     O .bss	00000008 dev0ep
080004a0 g     F .text	00000048 clearLED
08015b10 g     F .text	00000060 altera_avalon_jtag_uart_read_fd
0801750c g     F .text	000000c4 alt_get_fd
08016994 g     F .text	00000158 alt_busy_sleep
080040a4 g     F .text	00000038 MSDEventHandler
08010e88 g     F .text	00000054 _close_r
080176b8 g     F .text	0000007c memcmp
08015bd0 g     F .text	00000050 altera_avalon_jtag_uart_close_fd
0801bfe4 g       *ABS*	00000000 __alt_stack_base
08015c20 g     F .text	00000054 altera_avalon_jtag_uart_ioctl_fd
08008f7c g     F .text	00000154 __swsetup_r
08012cec g     F .text	000009d0 .hidden __divdf3
0800ae58 g     F .text	00000118 __sfp
0800d878 g     F .text	00000078 __copybits
0801864c g     O .rwdata	00000408 __malloc_av_
0800afa4 g     F .text	00000004 __sinit_lock_release
08004108 g     F .text	00000038 CDCEventHandler
08013914 g     F .text	0000086c .hidden __muldf3
0800416c g     F .text	00000038 DummyEventHandler
0800dfa8 g     F .text	00000054 __sread
08017404 g     F .text	00000108 alt_find_file
08016b48 g     F .text	000000a4 alt_dev_llist_insert
08015474 g     F .text	00000024 __malloc_lock
08015680 g     F .text	000000b0 sbrk
080048bc g     F .text	000022bc ___svfprintf_internal_r
0800ab9c g     F .text	0000005c _fflush_r
08010edc g     F .text	000000dc _calloc_r
08014f18 g     F .text	000001f4 gettimeofday
0801b9c0 g       *ABS*	00000000 __bss_start
08003068 g     F .text	00000188 MAX_busprobe
08000bec g     F .text	000001ac placeNewTet
0801b9cc g     O .bss	00000002 hid_device
0800c79c g     F .text	00000128 memset
08001018 g     F .text	000012b8 main
08003284 g     F .text	00000064 MAX3421E_Task
0801ba18 g     O .bss	00000004 alt_envp
0801b9f4 g     O .bss	00000004 __malloc_max_total_mem
08015b70 g     F .text	00000060 altera_avalon_jtag_uart_write_fd
08011574 g     F .text	00000018 __swbuf
080046e4 g     F .text	00000018 srand
080041fc g     F .text	00000084 ConvUTF8ToStr
0801b9c0 g     O .bss	00000004 pieceCount
0800e0dc g     F .text	00000008 __sclose
0c000000 g       *ABS*	00000000 __alt_heap_limit
080110a8 g     F .text	00000014 fclose
080092f8 g     F .text	00001688 _dtoa_r
0800bd50 g     F .text	0000080c _malloc_r
080116e8 g     F .text	00000030 __ascii_wctomb
08006b78 g     F .text	00000050 time
08019c9c g     O .rwdata	00000004 alt_errno
0800b8d4 g     F .text	000000c4 _fwalk
08004280 g     F .text	00000084 .hidden __divsi3
0800380c g     F .text	00000190 XferInTransfer
0800084c g     F .text	000000ec setColorPalette
08000600 g     F .text	00000138 printSignedHex1
0800afd8 g     F .text	00000124 _malloc_trim_r
08017a00 g       *ABS*	00000000 __CTOR_END__
080041c4 g     F .text	00000038 GetDevtable
0800e0e4 g     F .text	000000dc strcmp
08017a00 g       *ABS*	00000000 __flash_rodata_start
08017a00 g       *ABS*	00000000 __DTOR_LIST__
0800361c g     F .text	00000074 XferCtrlND
080136bc g     F .text	00000088 .hidden __nedf2
08002fa4 g     F .text	000000a0 MAX3421E_reset
08015a74 g     F .text	00000038 alt_irq_init
080155fc g     F .text	00000084 alt_release_fd
080047b8 g     F .text	0000006c sprintf
08017e6c g     O .rodata	00000100 .hidden __clz_tab
0801b9e8 g     O .bss	00000004 _PathLocale
0801766c g     F .text	00000014 atexit
08000e60 g     F .text	00000120 genTet
0801b9c4 g     O .bss	00000008 kbdbuf
08010e28 g     F .text	00000060 _write_r
0801ba7c g     O .bss	00000320 occupied
0800bb70 g     F .text	00000018 setlocale
08019c74 g     O .rwdata	00000004 _impure_ptr
0801ba10 g     O .bss	00000004 alt_argc
0800a980 g     F .text	0000021c __sflush_r
08016c4c g     F .text	00000060 _do_dtors
0800bb5c g     F .text	00000008 __locale_cjk_lang
08002d70 g     F .text	00000158 MAXbytes_wr
08000020 g       .exceptions	00000000 alt_irq_entry
0800d4a4 g     F .text	00000064 __ulp
0800afc0 g     F .text	00000018 __fp_unlock_all
08019c88 g     O .rwdata	00000008 alt_fs_list
080040dc g     F .text	0000002c CDCProbe
0801ba08 g     O .bss	00000008 alt_resettime
08000020 g       *ABS*	00000000 __ram_exceptions_start
0800bb88 g     F .text	0000000c localeconv
0800045c g     F .text	00000044 setLED
080041a4 g     F .text	00000020 GetUsbTaskState
08016ccc g     F .text	00000050 alt_ic_isr_register
08017a3c g     O .rodata	00000010 devclasses
08019cb0 g       *ABS*	00000000 _edata
08002c68 g     F .text	00000038 HIDKEventHandler
0801bfe4 g       *ABS*	00000000 _end
080032e8 g     F .text	000000cc MaxIntHandler
080110bc g     F .text	00000164 __fputwc
08000230 g       *ABS*	00000000 __ram_exceptions_end
08016048 g     F .text	000000f0 altera_avalon_jtag_uart_ioctl
08000f80 g     F .text	00000098 textVGADrawColorText
08002ca0 g     F .text	00000034 SPI_init
08016da4 g     F .text	0000008c alt_ic_irq_disable
0800e004 g     F .text	0000007c __swrite
08019c80 g     O .rwdata	00000004 __malloc_trim_threshold
0800bb50 g     F .text	0000000c __locale_msgcharset
08017680 g     F .text	00000038 exit
0800b998 g     F .text	000000c4 _fwalk_reent
0800076c g     F .text	000000e0 returnKeys
0800d2a8 g     F .text	000001fc __mdiff
08004304 g     F .text	00000074 .hidden __modsi3
0c000000 g       *ABS*	00000000 __alt_data_end
08000020 g     F .exceptions	00000000 alt_exception
0800af9c g     F .text	00000004 __sfp_lock_release
08000000 g       *ABS*	00000000 __alt_mem_sdram
08002c30 g     F .text	00000038 HIDMEventHandler
080179cc g     F .text	00000034 _exit
08016868 g     F .text	0000012c alt_alarm_start
080004e8 g     F .text	00000118 printSignedHex0
08011774 g     F .text	0000010c .hidden __muldi3
0800bb94 g     F .text	000001bc __smakebuf_r
08004824 g     F .text	00000098 strlen
080171f4 g     F .text	0000015c open
08013744 g     F .text	000000dc .hidden __gedf2
08019c84 g     O .rwdata	00000004 __wctomb
0800f82c g     F .text	00000018 __sprint_r
08016cac g     F .text	00000020 alt_icache_flush_all
08019cac g     O .rwdata	00000004 alt_priority_mask
08016d1c g     F .text	00000088 alt_ic_irq_enable
08008ea4 g     F .text	0000001c __vfprintf_internal
080022d0 g     F .text	00000408 HIDMProbe
08011718 g     F .text	0000005c _wctomb_r
08002cd4 g     F .text	00000028 SPI_wr
08014180 g     F .text	000008fc .hidden __subdf3
0800cc48 g     F .text	000000b0 __lo0bits
08019ca4 g     O .rwdata	00000008 alt_alarm_list
08016bec g     F .text	00000060 _do_ctors
08011628 g     F .text	000000c0 wcrtomb
08014d20 g     F .text	000000d8 close
0801525c g     F .text	00000084 alt_load
08011244 g     F .text	00000080 fputwc
0800afa0 g     F .text	00000004 __sinit_lock_acquire
080033e8 g     F .text	0000014c XferCtrlReq
0800c994 g     F .text	00000148 __multadd
0800c96c g     F .text	00000028 _Bfree



Disassembly of section .entry:

08000000 <__reset>:
 * Jump to the _start entry point in the .text section if reset code
 * is allowed or if optimizing for RTL simulation.
 */
#if defined(ALT_ALLOW_CODE_AT_RESET) || defined(ALT_SIM_OPTIMIZE)
    /* Jump to the _start entry point in the .text section. */
    movhi r1, %hi(_start)
 8000000:	00420034 	movhi	at,2048
    ori r1, r1, %lo(_start)
 8000004:	08408c14 	ori	at,at,560
    jmp r1
 8000008:	0800683a 	jmp	at
	...

Disassembly of section .exceptions:

08000020 <alt_exception>:

#else /* ALT_EXCEPTION_STACK disabled */
        /* 
         * Reserve space on normal stack for registers about to be pushed.
         */
        addi  sp, sp, -76
 8000020:	deffed04 	addi	sp,sp,-76
         * documentation for details).
         *
         * Leave a gap in the stack frame at 4(sp) for the muldiv handler to
         * store zero into.
         */
        stw   ra,  0(sp)
 8000024:	dfc00015 	stw	ra,0(sp)
        stw   r1,   8(sp)
 8000028:	d8400215 	stw	at,8(sp)
        stw   r2,  12(sp)
 800002c:	d8800315 	stw	r2,12(sp)
        stw   r3,  16(sp)
 8000030:	d8c00415 	stw	r3,16(sp)
        stw   r4,  20(sp)
 8000034:	d9000515 	stw	r4,20(sp)
        stw   r5,  24(sp)
 8000038:	d9400615 	stw	r5,24(sp)
        stw   r6,  28(sp)
 800003c:	d9800715 	stw	r6,28(sp)
        stw   r7,  32(sp)
 8000040:	d9c00815 	stw	r7,32(sp)
        rdctl r5, estatus   /* Read early to avoid usage stall */
 8000044:	000b307a 	rdctl	r5,estatus
        stw   r8,  36(sp)
 8000048:	da000915 	stw	r8,36(sp)
        stw   r9,  40(sp)
 800004c:	da400a15 	stw	r9,40(sp)
        stw   r10, 44(sp)
 8000050:	da800b15 	stw	r10,44(sp)
        stw   r11, 48(sp)
 8000054:	dac00c15 	stw	r11,48(sp)
        stw   r12, 52(sp)
 8000058:	db000d15 	stw	r12,52(sp)
        stw   r13, 56(sp)
 800005c:	db400e15 	stw	r13,56(sp)
        stw   r14, 60(sp)
 8000060:	db800f15 	stw	r14,60(sp)
        stw   r15, 64(sp)
 8000064:	dbc01015 	stw	r15,64(sp)
        /*
         * ea-4 contains the address of the instruction being executed
         * when the exception occured. For interrupt exceptions, we will
         * will be re-issue the isntruction. Store it in 72(sp)
         */
        stw   r5,  68(sp)  /* estatus */
 8000068:	d9401115 	stw	r5,68(sp)
        addi  r15, ea, -4  /* instruction that caused exception */
 800006c:	ebffff04 	addi	r15,ea,-4
        stw   r15,  72(sp)
 8000070:	dbc01215 	stw	r15,72(sp)
#else
        /*
         * Test to see if the exception was a software exception or caused 
         * by an external interrupt, and vector accordingly.
         */
        rdctl r4, ipending
 8000074:	0009313a 	rdctl	r4,ipending
        andi  r2, r5, 1
 8000078:	2880004c 	andi	r2,r5,1
        beq   r2, zero, .Lnot_irq
 800007c:	10000326 	beq	r2,zero,800008c <alt_exception+0x6c>
        beq   r4, zero, .Lnot_irq
 8000080:	20000226 	beq	r4,zero,800008c <alt_exception+0x6c>
        /*
         * Now that all necessary registers have been preserved, call 
         * alt_irq_handler() to process the interrupts.
         */

        call alt_irq_handler
 8000084:	80000fc0 	call	80000fc <alt_irq_handler>

        .section .exceptions.irqreturn, "xa"

        br    .Lexception_exit
 8000088:	00000706 	br	80000a8 <alt_exception+0x88>
         * upon completion, so we write ea (address of instruction *after*
         * the one where the exception occured) into 72(sp). The actual
         * instruction that caused the exception is written in r2, which these
         * handlers will utilize.
         */
        stw ea, 72(sp) /* EA is PC+4 so will skip over instruction causing exception */
 800008c:	df401215 	stw	ea,72(sp)
.Lunknown_16bit:
        addi.n r4, r4, 2 /* Need PC+2 to skip over instruction causing exception */
        stw r4, 72(sp)

#else /* CDX is not Enabled and all instructions are 32bits */
        ldw r2, -4(ea) /* Instruction value that caused exception */
 8000090:	e8bfff17 	ldw	r2,-4(ea)
         * debugger is present) or go into an infinite loop since the
         * handling behavior is undefined; in that case we will not return here.
         */

        /* Load exception-causing address as first argument (r4) */
        addi   r4, ea, -4
 8000094:	e93fff04 	addi	r4,ea,-4

        /* Call the instruction-exception entry */
        call   alt_instruction_exception_entry
 8000098:	80001d00 	call	80001d0 <alt_instruction_exception_entry>
         * instruction
         *
         * Return code was 0: Skip. The instruction after the exception is
         * already stored in 72(sp).
         */
        bne   r2, r0, .Lexception_exit
 800009c:	1000021e 	bne	r2,zero,80000a8 <alt_exception+0x88>

        /*
         * Otherwise, modify 72(sp) to re-issue the instruction that caused the
         * exception.
         */
        addi  r15, ea, -4  /* instruction that caused exception */
 80000a0:	ebffff04 	addi	r15,ea,-4
        stw   r15,  72(sp)
 80000a4:	dbc01215 	stw	r15,72(sp)
        /* 
         * Restore the saved registers, so that all general purpose registers 
         * have been restored to their state at the time the interrupt occured.
         */

        ldw   r5,  68(sp)
 80000a8:	d9401117 	ldw	r5,68(sp)
        ldw   ea,  72(sp)  /* This becomes the PC once eret is executed */
 80000ac:	df401217 	ldw	ea,72(sp)
        ldw   ra,   0(sp)
 80000b0:	dfc00017 	ldw	ra,0(sp)

        wrctl estatus, r5
 80000b4:	2801707a 	wrctl	estatus,r5

        ldw   r1,   8(sp)
 80000b8:	d8400217 	ldw	at,8(sp)
        ldw   r2,  12(sp)
 80000bc:	d8800317 	ldw	r2,12(sp)
        ldw   r3,  16(sp)
 80000c0:	d8c00417 	ldw	r3,16(sp)
        ldw   r4,  20(sp)
 80000c4:	d9000517 	ldw	r4,20(sp)
        ldw   r5,  24(sp)
 80000c8:	d9400617 	ldw	r5,24(sp)
        ldw   r6,  28(sp)
 80000cc:	d9800717 	ldw	r6,28(sp)
        ldw   r7,  32(sp)
 80000d0:	d9c00817 	ldw	r7,32(sp)

#if defined(ALT_EXCEPTION_STACK) && defined(ALT_STACK_CHECK)
        ldw   et, %gprel(alt_exception_old_stack_limit)(gp)
#endif

        ldw   r8,  36(sp)
 80000d4:	da000917 	ldw	r8,36(sp)
        ldw   r9,  40(sp)
 80000d8:	da400a17 	ldw	r9,40(sp)
        ldw   r10, 44(sp)
 80000dc:	da800b17 	ldw	r10,44(sp)
        ldw   r11, 48(sp)
 80000e0:	dac00c17 	ldw	r11,48(sp)
        ldw   r12, 52(sp)
 80000e4:	db000d17 	ldw	r12,52(sp)
        ldw   r13, 56(sp)
 80000e8:	db400e17 	ldw	r13,56(sp)
        ldw   r14, 60(sp)
 80000ec:	db800f17 	ldw	r14,60(sp)
        ldw   r15, 64(sp)
 80000f0:	dbc01017 	ldw	r15,64(sp)
        stw   et, %gprel(alt_stack_limit_value)(gp)
        stw   zero, %gprel(alt_exception_old_stack_limit)(gp)
#endif /* ALT_STACK_CHECK */
        ldw   sp,  76(sp)
#else /* ALT_EXCEPTION_STACK disabled */
        addi  sp, sp, 76
 80000f4:	dec01304 	addi	sp,sp,76

        /*
         * Return to the interrupted instruction.
         */

        eret
 80000f8:	ef80083a 	eret

080000fc <alt_irq_handler>:
 * instruction is present if the macro ALT_CI_INTERRUPT_VECTOR defined.
 */

void alt_irq_handler (void) __attribute__ ((section (".exceptions")));
void alt_irq_handler (void)
{
 80000fc:	defff904 	addi	sp,sp,-28
 8000100:	dfc00615 	stw	ra,24(sp)
 8000104:	df000515 	stw	fp,20(sp)
 8000108:	df000504 	addi	fp,sp,20
  
  /*
   * Notify the operating system that we are at interrupt level.
   */ 
  
  ALT_OS_INT_ENTER();
 800010c:	0001883a 	nop
#ifndef NIOS2_EIC_PRESENT
static ALT_INLINE alt_u32 ALT_ALWAYS_INLINE alt_irq_pending (void)
{
  alt_u32 active;

  NIOS2_READ_IPENDING (active);
 8000110:	0005313a 	rdctl	r2,ipending
 8000114:	e0bffe15 	stw	r2,-8(fp)

  return active;
 8000118:	e0bffe17 	ldw	r2,-8(fp)
   * Consider the case where the high priority interupt is asserted during
   * the interrupt entry sequence for a lower priority interrupt to see why
   * this is the case.
   */

  active = alt_irq_pending ();
 800011c:	e0bffb15 	stw	r2,-20(fp)

  do
  {
    i = 0;
 8000120:	e03ffd15 	stw	zero,-12(fp)
    mask = 1;
 8000124:	00800044 	movi	r2,1
 8000128:	e0bffc15 	stw	r2,-16(fp)
     * called to clear the interrupt condition.
     */

    do
    {
      if (active & mask)
 800012c:	e0fffb17 	ldw	r3,-20(fp)
 8000130:	e0bffc17 	ldw	r2,-16(fp)
 8000134:	1884703a 	and	r2,r3,r2
 8000138:	10001426 	beq	r2,zero,800018c <alt_irq_handler+0x90>
      { 
#ifdef ALT_ENHANCED_INTERRUPT_API_PRESENT
        alt_irq[i].handler(alt_irq[i].context); 
 800013c:	008200b4 	movhi	r2,2050
 8000140:	10afb904 	addi	r2,r2,-16668
 8000144:	e0fffd17 	ldw	r3,-12(fp)
 8000148:	180690fa 	slli	r3,r3,3
 800014c:	10c5883a 	add	r2,r2,r3
 8000150:	10c00017 	ldw	r3,0(r2)
 8000154:	008200b4 	movhi	r2,2050
 8000158:	10afb904 	addi	r2,r2,-16668
 800015c:	e13ffd17 	ldw	r4,-12(fp)
 8000160:	200890fa 	slli	r4,r4,3
 8000164:	1105883a 	add	r2,r2,r4
 8000168:	10800104 	addi	r2,r2,4
 800016c:	10800017 	ldw	r2,0(r2)
 8000170:	1009883a 	mov	r4,r2
 8000174:	183ee83a 	callr	r3
#else
        alt_irq[i].handler(alt_irq[i].context, i); 
#endif
        break;
 8000178:	0001883a 	nop
#ifndef NIOS2_EIC_PRESENT
static ALT_INLINE alt_u32 ALT_ALWAYS_INLINE alt_irq_pending (void)
{
  alt_u32 active;

  NIOS2_READ_IPENDING (active);
 800017c:	0005313a 	rdctl	r2,ipending
 8000180:	e0bfff15 	stw	r2,-4(fp)

  return active;
 8000184:	e0bfff17 	ldw	r2,-4(fp)
 8000188:	00000706 	br	80001a8 <alt_irq_handler+0xac>
      }
      mask <<= 1;
 800018c:	e0bffc17 	ldw	r2,-16(fp)
 8000190:	1085883a 	add	r2,r2,r2
 8000194:	e0bffc15 	stw	r2,-16(fp)
      i++;
 8000198:	e0bffd17 	ldw	r2,-12(fp)
 800019c:	10800044 	addi	r2,r2,1
 80001a0:	e0bffd15 	stw	r2,-12(fp)

    } while (1);
 80001a4:	003fe106 	br	800012c <__alt_data_end+0xfc00012c>

    active = alt_irq_pending ();
 80001a8:	e0bffb15 	stw	r2,-20(fp)
    
  } while (active);
 80001ac:	e0bffb17 	ldw	r2,-20(fp)
 80001b0:	103fdb1e 	bne	r2,zero,8000120 <__alt_data_end+0xfc000120>

  /*
   * Notify the operating system that interrupt processing is complete.
   */ 

  ALT_OS_INT_EXIT();
 80001b4:	0001883a 	nop
}
 80001b8:	0001883a 	nop
 80001bc:	e037883a 	mov	sp,fp
 80001c0:	dfc00117 	ldw	ra,4(sp)
 80001c4:	df000017 	ldw	fp,0(sp)
 80001c8:	dec00204 	addi	sp,sp,8
 80001cc:	f800283a 	ret

080001d0 <alt_instruction_exception_entry>:
 * that handler if it has been registered. Absent a handler, it will
 * break break or hang as discussed below.
 */
int 
alt_instruction_exception_entry (alt_u32 exception_pc)
{
 80001d0:	defffb04 	addi	sp,sp,-20
 80001d4:	dfc00415 	stw	ra,16(sp)
 80001d8:	df000315 	stw	fp,12(sp)
 80001dc:	df000304 	addi	fp,sp,12
 80001e0:	e13fff15 	stw	r4,-4(fp)
  cause = ( (cause & NIOS2_EXCEPTION_REG_CAUSE_MASK) >>
              NIOS2_EXCEPTION_REG_CAUSE_OFST );

  NIOS2_READ_BADADDR(badaddr);
#else
  cause = NIOS2_EXCEPTION_CAUSE_NOT_PRESENT;
 80001e4:	00bfffc4 	movi	r2,-1
 80001e8:	e0bffd15 	stw	r2,-12(fp)
  badaddr = 0;
 80001ec:	e03ffe15 	stw	zero,-8(fp)
#endif /* NIOS2_HAS_EXTRA_EXCEPTION_INFO */

  if(alt_instruction_exception_handler) {
 80001f0:	d0a77317 	ldw	r2,-25140(gp)
 80001f4:	10000726 	beq	r2,zero,8000214 <alt_instruction_exception_entry+0x44>
     * Call handler. Its return value indicates whether the exception-causing
     * instruction should be re-issued. The code that called us,
     * alt_eceptions_entry.S, will look at this value and adjust the ea
     * register as necessary
     */
    return alt_instruction_exception_handler(cause, exception_pc, badaddr);
 80001f8:	d0a77317 	ldw	r2,-25140(gp)
 80001fc:	e0fffd17 	ldw	r3,-12(fp)
 8000200:	e1bffe17 	ldw	r6,-8(fp)
 8000204:	e17fff17 	ldw	r5,-4(fp)
 8000208:	1809883a 	mov	r4,r3
 800020c:	103ee83a 	callr	r2
 8000210:	00000206 	br	800021c <alt_instruction_exception_entry+0x4c>
   *    (a peripheral which negates its interrupt output before its
   *    interrupt handler has been executed will cause spurious interrupts)
   */
  else {
#ifdef NIOS2_HAS_DEBUG_STUB
    NIOS2_BREAK();
 8000214:	003da03a 	break	0
      ;
#endif /* NIOS2_HAS_DEBUG_STUB */
  }

  /* We should not get here. Remove compiler warning. */
  return NIOS2_EXCEPTION_RETURN_REISSUE_INST;
 8000218:	0005883a 	mov	r2,zero
}
 800021c:	e037883a 	mov	sp,fp
 8000220:	dfc00117 	ldw	ra,4(sp)
 8000224:	df000017 	ldw	fp,0(sp)
 8000228:	dec00204 	addi	sp,sp,8
 800022c:	f800283a 	ret

Disassembly of section .text:

08000230 <_start>:

    /*
     * Now that the caches are initialized, set up the stack pointer and global pointer.
     * The values provided by the linker are assumed to be correctly aligned.
     */
    movhi sp, %hi(__alt_stack_pointer)
 8000230:	06c30034 	movhi	sp,3072
    ori sp, sp, %lo(__alt_stack_pointer)
 8000234:	dec00014 	ori	sp,sp,0
    movhi gp, %hi(_gp)
 8000238:	068200b4 	movhi	gp,2050
    ori gp, gp, %lo(_gp)
 800023c:	d6871714 	ori	gp,gp,7260
 */
#ifndef ALT_SIM_OPTIMIZE
    /* Log that the BSS is about to be cleared. */
    ALT_LOG_PUTS(alt_log_msg_bss)

    movhi r2, %hi(__bss_start)
 8000240:	00820074 	movhi	r2,2049
    ori r2, r2, %lo(__bss_start)
 8000244:	10ae7014 	ori	r2,r2,47552

    movhi r3, %hi(__bss_end)
 8000248:	00c20074 	movhi	r3,2049
    ori r3, r3, %lo(__bss_end)
 800024c:	18eff914 	ori	r3,r3,49124

    beq r2, r3, 1f
 8000250:	10c00326 	beq	r2,r3,8000260 <_start+0x30>

0:
    stw zero, (r2)
 8000254:	10000015 	stw	zero,0(r2)
    addi r2, r2, 4
 8000258:	10800104 	addi	r2,r2,4
    bltu r2, r3, 0b
 800025c:	10fffd36 	bltu	r2,r3,8000254 <__alt_data_end+0xfc000254>
     * section aren't defined until alt_load() has been called).
     */
    mov   et, zero
#endif

    call alt_load
 8000260:	801525c0 	call	801525c <alt_load>

    /* Log that alt_main is about to be called. */
    ALT_LOG_PUTS(alt_log_msg_alt_main)

    /* Call the C entry point. It should never return. */
    call alt_main
 8000264:	80153f80 	call	80153f8 <alt_main>

08000268 <alt_after_alt_main>:

    /* Wait in infinite loop in case alt_main does return. */
alt_after_alt_main:
    br alt_after_alt_main
 8000268:	003fff06 	br	8000268 <__alt_data_end+0xfc000268>

0800026c <GetDriverandReport>:
extern HID_DEVICE hid_device;

static BYTE addr = 1; 				//hard-wired USB address
const char* const devclasses[] = { " Uninitialized", " HID Keyboard", " HID Mouse", " Mass storage" };
BOOT_KBD_REPORT kbdbuf;
BYTE GetDriverandReport() {
 800026c:	defff604 	addi	sp,sp,-40
 8000270:	dfc00915 	stw	ra,36(sp)
 8000274:	df000815 	stw	fp,32(sp)
 8000278:	df000804 	addi	fp,sp,32
	BYTE i;
	BYTE rcode;
	BYTE device = 0xFF;
 800027c:	00bfffc4 	movi	r2,-1
 8000280:	e0bffd45 	stb	r2,-11(fp)
	BYTE tmpbyte;

	DEV_RECORD* tpl_ptr;
	printf("Reached USB_STATE_RUNNING (0x40)\n");
 8000284:	01020074 	movhi	r4,2049
 8000288:	211e9304 	addi	r4,r4,31308
 800028c:	80046d00 	call	80046d0 <puts>
	for (i = 1; i < USB_NUMDEVICES; i++) {
 8000290:	00800044 	movi	r2,1
 8000294:	e0bffd05 	stb	r2,-12(fp)
 8000298:	00001f06 	br	8000318 <GetDriverandReport+0xac>
		tpl_ptr = GetDevtable(i);
 800029c:	e0bffd03 	ldbu	r2,-12(fp)
 80002a0:	1009883a 	mov	r4,r2
 80002a4:	80041c40 	call	80041c4 <GetDevtable>
 80002a8:	e0bffe15 	stw	r2,-8(fp)
		if (tpl_ptr->epinfo != NULL) {
 80002ac:	e0bffe17 	ldw	r2,-8(fp)
 80002b0:	10800017 	ldw	r2,0(r2)
 80002b4:	10001526 	beq	r2,zero,800030c <GetDriverandReport+0xa0>
			printf("Device: %d", i);
 80002b8:	e0bffd03 	ldbu	r2,-12(fp)
 80002bc:	100b883a 	mov	r5,r2
 80002c0:	01020074 	movhi	r4,2049
 80002c4:	211e9c04 	addi	r4,r4,31344
 80002c8:	80045d40 	call	80045d4 <printf>
			printf("%s \n", devclasses[tpl_ptr->devclass]);
 80002cc:	e0bffe17 	ldw	r2,-8(fp)
 80002d0:	10800103 	ldbu	r2,4(r2)
 80002d4:	10c03fcc 	andi	r3,r2,255
 80002d8:	00820074 	movhi	r2,2049
 80002dc:	109e8f04 	addi	r2,r2,31292
 80002e0:	18c7883a 	add	r3,r3,r3
 80002e4:	18c7883a 	add	r3,r3,r3
 80002e8:	10c5883a 	add	r2,r2,r3
 80002ec:	10800017 	ldw	r2,0(r2)
 80002f0:	100b883a 	mov	r5,r2
 80002f4:	01020074 	movhi	r4,2049
 80002f8:	211e9f04 	addi	r4,r4,31356
 80002fc:	80045d40 	call	80045d4 <printf>
			device = tpl_ptr->devclass;
 8000300:	e0bffe17 	ldw	r2,-8(fp)
 8000304:	10800103 	ldbu	r2,4(r2)
 8000308:	e0bffd45 	stb	r2,-11(fp)
	BYTE device = 0xFF;
	BYTE tmpbyte;

	DEV_RECORD* tpl_ptr;
	printf("Reached USB_STATE_RUNNING (0x40)\n");
	for (i = 1; i < USB_NUMDEVICES; i++) {
 800030c:	e0bffd03 	ldbu	r2,-12(fp)
 8000310:	10800044 	addi	r2,r2,1
 8000314:	e0bffd05 	stb	r2,-12(fp)
 8000318:	e0bffd03 	ldbu	r2,-12(fp)
 800031c:	10800230 	cmpltui	r2,r2,8
 8000320:	103fde1e 	bne	r2,zero,800029c <__alt_data_end+0xfc00029c>
			printf("%s \n", devclasses[tpl_ptr->devclass]);
			device = tpl_ptr->devclass;
		}
	}
	//Query rate and protocol
	rcode = XferGetIdle(addr, 0, hid_device.interface, 0, &tmpbyte);
 8000324:	d0a00003 	ldbu	r2,-32768(gp)
 8000328:	11003fcc 	andi	r4,r2,255
 800032c:	d0a75c43 	ldbu	r2,-25231(gp)
 8000330:	10803fcc 	andi	r2,r2,255
 8000334:	e0ffff44 	addi	r3,fp,-3
 8000338:	d8c00415 	stw	r3,16(sp)
 800033c:	00c00044 	movi	r3,1
 8000340:	d8c00315 	stw	r3,12(sp)
 8000344:	d8800215 	stw	r2,8(sp)
 8000348:	d8000115 	stw	zero,4(sp)
 800034c:	d8000015 	stw	zero,0(sp)
 8000350:	01c00084 	movi	r7,2
 8000354:	01802844 	movi	r6,161
 8000358:	000b883a 	mov	r5,zero
 800035c:	80033e80 	call	80033e8 <XferCtrlReq>
 8000360:	e0bfff05 	stb	r2,-4(fp)
	if (rcode) {   //error handling
 8000364:	e0bfff03 	ldbu	r2,-4(fp)
 8000368:	10000926 	beq	r2,zero,8000390 <GetDriverandReport+0x124>
		printf("GetIdle Error. Error code: ");
 800036c:	01020074 	movhi	r4,2049
 8000370:	211ea104 	addi	r4,r4,31364
 8000374:	80045d40 	call	80045d4 <printf>
		printf("%x \n", rcode);
 8000378:	e0bfff03 	ldbu	r2,-4(fp)
 800037c:	100b883a 	mov	r5,r2
 8000380:	01020074 	movhi	r4,2049
 8000384:	211ea804 	addi	r4,r4,31392
 8000388:	80045d40 	call	80045d4 <printf>
 800038c:	00000906 	br	80003b4 <GetDriverandReport+0x148>
	} else {
		printf("Update rate: ");
 8000390:	01020074 	movhi	r4,2049
 8000394:	211eaa04 	addi	r4,r4,31400
 8000398:	80045d40 	call	80045d4 <printf>
		printf("%x \n", tmpbyte);
 800039c:	e0bfff43 	ldbu	r2,-3(fp)
 80003a0:	10803fcc 	andi	r2,r2,255
 80003a4:	100b883a 	mov	r5,r2
 80003a8:	01020074 	movhi	r4,2049
 80003ac:	211ea804 	addi	r4,r4,31392
 80003b0:	80045d40 	call	80045d4 <printf>
	}
	printf("Protocol: ");
 80003b4:	01020074 	movhi	r4,2049
 80003b8:	211eae04 	addi	r4,r4,31416
 80003bc:	80045d40 	call	80045d4 <printf>
	rcode = XferGetProto(addr, 0, hid_device.interface, &tmpbyte);
 80003c0:	d0a00003 	ldbu	r2,-32768(gp)
 80003c4:	11003fcc 	andi	r4,r2,255
 80003c8:	d0a75c43 	ldbu	r2,-25231(gp)
 80003cc:	10803fcc 	andi	r2,r2,255
 80003d0:	e0ffff44 	addi	r3,fp,-3
 80003d4:	d8c00415 	stw	r3,16(sp)
 80003d8:	00c00044 	movi	r3,1
 80003dc:	d8c00315 	stw	r3,12(sp)
 80003e0:	d8800215 	stw	r2,8(sp)
 80003e4:	d8000115 	stw	zero,4(sp)
 80003e8:	d8000015 	stw	zero,0(sp)
 80003ec:	01c000c4 	movi	r7,3
 80003f0:	01802844 	movi	r6,161
 80003f4:	000b883a 	mov	r5,zero
 80003f8:	80033e80 	call	80033e8 <XferCtrlReq>
 80003fc:	e0bfff05 	stb	r2,-4(fp)
	if (rcode) {   //error handling
 8000400:	e0bfff03 	ldbu	r2,-4(fp)
 8000404:	10000926 	beq	r2,zero,800042c <GetDriverandReport+0x1c0>
		printf("GetProto Error. Error code ");
 8000408:	01020074 	movhi	r4,2049
 800040c:	211eb104 	addi	r4,r4,31428
 8000410:	80045d40 	call	80045d4 <printf>
		printf("%x \n", rcode);
 8000414:	e0bfff03 	ldbu	r2,-4(fp)
 8000418:	100b883a 	mov	r5,r2
 800041c:	01020074 	movhi	r4,2049
 8000420:	211ea804 	addi	r4,r4,31392
 8000424:	80045d40 	call	80045d4 <printf>
 8000428:	00000606 	br	8000444 <GetDriverandReport+0x1d8>
	} else {
		printf("%d \n", tmpbyte);
 800042c:	e0bfff43 	ldbu	r2,-3(fp)
 8000430:	10803fcc 	andi	r2,r2,255
 8000434:	100b883a 	mov	r5,r2
 8000438:	01020074 	movhi	r4,2049
 800043c:	211eb804 	addi	r4,r4,31456
 8000440:	80045d40 	call	80045d4 <printf>
	}
	return device;
 8000444:	e0bffd43 	ldbu	r2,-11(fp)
}
 8000448:	e037883a 	mov	sp,fp
 800044c:	dfc00117 	ldw	ra,4(sp)
 8000450:	df000017 	ldw	fp,0(sp)
 8000454:	dec00204 	addi	sp,sp,8
 8000458:	f800283a 	ret

0800045c <setLED>:

void setLED(int LED) {
 800045c:	defffe04 	addi	sp,sp,-8
 8000460:	df000115 	stw	fp,4(sp)
 8000464:	df000104 	addi	fp,sp,4
 8000468:	e13fff15 	stw	r4,-4(fp)
	IOWR_ALTERA_AVALON_PIO_DATA(LEDS_PIO_BASE,
 800046c:	00805c04 	movi	r2,368
 8000470:	10c00037 	ldwio	r3,0(r2)
 8000474:	01000044 	movi	r4,1
 8000478:	e0bfff17 	ldw	r2,-4(fp)
 800047c:	2084983a 	sll	r2,r4,r2
 8000480:	1886b03a 	or	r3,r3,r2
 8000484:	00805c04 	movi	r2,368
 8000488:	10c00035 	stwio	r3,0(r2)
			(IORD_ALTERA_AVALON_PIO_DATA(LEDS_PIO_BASE) | (0x001 << LED)));
}
 800048c:	0001883a 	nop
 8000490:	e037883a 	mov	sp,fp
 8000494:	df000017 	ldw	fp,0(sp)
 8000498:	dec00104 	addi	sp,sp,4
 800049c:	f800283a 	ret

080004a0 <clearLED>:

void clearLED(int LED) {
 80004a0:	defffe04 	addi	sp,sp,-8
 80004a4:	df000115 	stw	fp,4(sp)
 80004a8:	df000104 	addi	fp,sp,4
 80004ac:	e13fff15 	stw	r4,-4(fp)
	IOWR_ALTERA_AVALON_PIO_DATA(LEDS_PIO_BASE,
 80004b0:	00805c04 	movi	r2,368
 80004b4:	10c00037 	ldwio	r3,0(r2)
 80004b8:	01000044 	movi	r4,1
 80004bc:	e0bfff17 	ldw	r2,-4(fp)
 80004c0:	2084983a 	sll	r2,r4,r2
 80004c4:	0084303a 	nor	r2,zero,r2
 80004c8:	1886703a 	and	r3,r3,r2
 80004cc:	00805c04 	movi	r2,368
 80004d0:	10c00035 	stwio	r3,0(r2)
			(IORD_ALTERA_AVALON_PIO_DATA(LEDS_PIO_BASE) & ~(0x001 << LED)));

}
 80004d4:	0001883a 	nop
 80004d8:	e037883a 	mov	sp,fp
 80004dc:	df000017 	ldw	fp,0(sp)
 80004e0:	dec00104 	addi	sp,sp,4
 80004e4:	f800283a 	ret

080004e8 <printSignedHex0>:

void printSignedHex0(signed char value) {
 80004e8:	defffc04 	addi	sp,sp,-16
 80004ec:	dfc00315 	stw	ra,12(sp)
 80004f0:	df000215 	stw	fp,8(sp)
 80004f4:	df000204 	addi	fp,sp,8
 80004f8:	2005883a 	mov	r2,r4
 80004fc:	e0bfff05 	stb	r2,-4(fp)
	BYTE tens = 0;
 8000500:	e03ffe05 	stb	zero,-8(fp)
	BYTE ones = 0;
 8000504:	e03ffe45 	stb	zero,-7(fp)
	WORD pio_val = IORD_ALTERA_AVALON_PIO_DATA(HEX_DIGITS_PIO_BASE);
 8000508:	00806004 	movi	r2,384
 800050c:	10800037 	ldwio	r2,0(r2)
 8000510:	e0bffe8d 	sth	r2,-6(fp)
	if (value < 0) {
 8000514:	e0bfff07 	ldb	r2,-4(fp)
 8000518:	1000060e 	bge	r2,zero,8000534 <printSignedHex0+0x4c>
		setLED(11);
 800051c:	010002c4 	movi	r4,11
 8000520:	800045c0 	call	800045c <setLED>
		value = -value;
 8000524:	e0bfff03 	ldbu	r2,-4(fp)
 8000528:	0085c83a 	sub	r2,zero,r2
 800052c:	e0bfff05 	stb	r2,-4(fp)
 8000530:	00000206 	br	800053c <printSignedHex0+0x54>
	} else {
		clearLED(11);
 8000534:	010002c4 	movi	r4,11
 8000538:	80004a00 	call	80004a0 <clearLED>
	}
	//handled hundreds
	if (value / 100)
 800053c:	e0bfff03 	ldbu	r2,-4(fp)
 8000540:	108018c4 	addi	r2,r2,99
 8000544:	10803fcc 	andi	r2,r2,255
 8000548:	108031f0 	cmpltui	r2,r2,199
 800054c:	1000031e 	bne	r2,zero,800055c <printSignedHex0+0x74>
		setLED(13);
 8000550:	01000344 	movi	r4,13
 8000554:	800045c0 	call	800045c <setLED>
 8000558:	00000206 	br	8000564 <printSignedHex0+0x7c>
	else
		clearLED(13);
 800055c:	01000344 	movi	r4,13
 8000560:	80004a00 	call	80004a0 <clearLED>

	value = value % 100;
 8000564:	e0bfff07 	ldb	r2,-4(fp)
 8000568:	01401904 	movi	r5,100
 800056c:	1009883a 	mov	r4,r2
 8000570:	80043040 	call	8004304 <__modsi3>
 8000574:	e0bfff05 	stb	r2,-4(fp)
	tens = value / 10;
 8000578:	e0bfff07 	ldb	r2,-4(fp)
 800057c:	01400284 	movi	r5,10
 8000580:	1009883a 	mov	r4,r2
 8000584:	80042800 	call	8004280 <__divsi3>
 8000588:	e0bffe05 	stb	r2,-8(fp)
	ones = value % 10;
 800058c:	e0bfff07 	ldb	r2,-4(fp)
 8000590:	01400284 	movi	r5,10
 8000594:	1009883a 	mov	r4,r2
 8000598:	80043040 	call	8004304 <__modsi3>
 800059c:	e0bffe45 	stb	r2,-7(fp)

	pio_val &= 0x00FF;
 80005a0:	e0bffe8b 	ldhu	r2,-6(fp)
 80005a4:	10803fcc 	andi	r2,r2,255
 80005a8:	e0bffe8d 	sth	r2,-6(fp)
	pio_val |= (tens << 12);
 80005ac:	e0bffe03 	ldbu	r2,-8(fp)
 80005b0:	1004933a 	slli	r2,r2,12
 80005b4:	1007883a 	mov	r3,r2
 80005b8:	e0bffe8b 	ldhu	r2,-6(fp)
 80005bc:	1884b03a 	or	r2,r3,r2
 80005c0:	e0bffe8d 	sth	r2,-6(fp)
	pio_val |= (ones << 8);
 80005c4:	e0bffe43 	ldbu	r2,-7(fp)
 80005c8:	1004923a 	slli	r2,r2,8
 80005cc:	1007883a 	mov	r3,r2
 80005d0:	e0bffe8b 	ldhu	r2,-6(fp)
 80005d4:	1884b03a 	or	r2,r3,r2
 80005d8:	e0bffe8d 	sth	r2,-6(fp)

	IOWR_ALTERA_AVALON_PIO_DATA(HEX_DIGITS_PIO_BASE, pio_val);
 80005dc:	e0fffe8b 	ldhu	r3,-6(fp)
 80005e0:	00806004 	movi	r2,384
 80005e4:	10c00035 	stwio	r3,0(r2)
}
 80005e8:	0001883a 	nop
 80005ec:	e037883a 	mov	sp,fp
 80005f0:	dfc00117 	ldw	ra,4(sp)
 80005f4:	df000017 	ldw	fp,0(sp)
 80005f8:	dec00204 	addi	sp,sp,8
 80005fc:	f800283a 	ret

08000600 <printSignedHex1>:

void printSignedHex1(signed char value) {
 8000600:	defffb04 	addi	sp,sp,-20
 8000604:	dfc00415 	stw	ra,16(sp)
 8000608:	df000315 	stw	fp,12(sp)
 800060c:	df000304 	addi	fp,sp,12
 8000610:	2005883a 	mov	r2,r4
 8000614:	e0bfff05 	stb	r2,-4(fp)
	BYTE tens = 0;
 8000618:	e03ffd05 	stb	zero,-12(fp)
	BYTE ones = 0;
 800061c:	e03ffd45 	stb	zero,-11(fp)
	DWORD pio_val = IORD_ALTERA_AVALON_PIO_DATA(HEX_DIGITS_PIO_BASE);
 8000620:	00806004 	movi	r2,384
 8000624:	10800037 	ldwio	r2,0(r2)
 8000628:	e0bffe15 	stw	r2,-8(fp)
	if (value < 0) {
 800062c:	e0bfff07 	ldb	r2,-4(fp)
 8000630:	1000060e 	bge	r2,zero,800064c <printSignedHex1+0x4c>
		setLED(10);
 8000634:	01000284 	movi	r4,10
 8000638:	800045c0 	call	800045c <setLED>
		value = -value;
 800063c:	e0bfff03 	ldbu	r2,-4(fp)
 8000640:	0085c83a 	sub	r2,zero,r2
 8000644:	e0bfff05 	stb	r2,-4(fp)
 8000648:	00000206 	br	8000654 <printSignedHex1+0x54>
	} else {
		clearLED(10);
 800064c:	01000284 	movi	r4,10
 8000650:	80004a00 	call	80004a0 <clearLED>
	}
	//handled hundreds
	if (value / 100)
 8000654:	e0bfff03 	ldbu	r2,-4(fp)
 8000658:	108018c4 	addi	r2,r2,99
 800065c:	10803fcc 	andi	r2,r2,255
 8000660:	108031f0 	cmpltui	r2,r2,199
 8000664:	1000031e 	bne	r2,zero,8000674 <printSignedHex1+0x74>
		setLED(12);
 8000668:	01000304 	movi	r4,12
 800066c:	800045c0 	call	800045c <setLED>
 8000670:	00000206 	br	800067c <printSignedHex1+0x7c>
	else
		clearLED(12);
 8000674:	01000304 	movi	r4,12
 8000678:	80004a00 	call	80004a0 <clearLED>

	value = value % 100;
 800067c:	e0bfff07 	ldb	r2,-4(fp)
 8000680:	01401904 	movi	r5,100
 8000684:	1009883a 	mov	r4,r2
 8000688:	80043040 	call	8004304 <__modsi3>
 800068c:	e0bfff05 	stb	r2,-4(fp)
	tens = value / 10;
 8000690:	e0bfff07 	ldb	r2,-4(fp)
 8000694:	01400284 	movi	r5,10
 8000698:	1009883a 	mov	r4,r2
 800069c:	80042800 	call	8004280 <__divsi3>
 80006a0:	e0bffd05 	stb	r2,-12(fp)
	ones = value % 10;
 80006a4:	e0bfff07 	ldb	r2,-4(fp)
 80006a8:	01400284 	movi	r5,10
 80006ac:	1009883a 	mov	r4,r2
 80006b0:	80043040 	call	8004304 <__modsi3>
 80006b4:	e0bffd45 	stb	r2,-11(fp)
	tens = value / 10;
 80006b8:	e0bfff07 	ldb	r2,-4(fp)
 80006bc:	01400284 	movi	r5,10
 80006c0:	1009883a 	mov	r4,r2
 80006c4:	80042800 	call	8004280 <__divsi3>
 80006c8:	e0bffd05 	stb	r2,-12(fp)
	ones = value % 10;
 80006cc:	e0bfff07 	ldb	r2,-4(fp)
 80006d0:	01400284 	movi	r5,10
 80006d4:	1009883a 	mov	r4,r2
 80006d8:	80043040 	call	8004304 <__modsi3>
 80006dc:	e0bffd45 	stb	r2,-11(fp)

	pio_val &= 0xFF00;
 80006e0:	e0bffe17 	ldw	r2,-8(fp)
 80006e4:	10bfc00c 	andi	r2,r2,65280
 80006e8:	e0bffe15 	stw	r2,-8(fp)
	pio_val |= (tens << 4);
 80006ec:	e0bffd03 	ldbu	r2,-12(fp)
 80006f0:	1004913a 	slli	r2,r2,4
 80006f4:	1007883a 	mov	r3,r2
 80006f8:	e0bffe17 	ldw	r2,-8(fp)
 80006fc:	10c4b03a 	or	r2,r2,r3
 8000700:	e0bffe15 	stw	r2,-8(fp)
	pio_val |= (ones << 0);
 8000704:	e0bffd43 	ldbu	r2,-11(fp)
 8000708:	e0fffe17 	ldw	r3,-8(fp)
 800070c:	1884b03a 	or	r2,r3,r2
 8000710:	e0bffe15 	stw	r2,-8(fp)

	IOWR_ALTERA_AVALON_PIO_DATA(HEX_DIGITS_PIO_BASE, pio_val);
 8000714:	e0fffe17 	ldw	r3,-8(fp)
 8000718:	00806004 	movi	r2,384
 800071c:	10c00035 	stwio	r3,0(r2)
}
 8000720:	0001883a 	nop
 8000724:	e037883a 	mov	sp,fp
 8000728:	dfc00117 	ldw	ra,4(sp)
 800072c:	df000017 	ldw	fp,0(sp)
 8000730:	dec00204 	addi	sp,sp,8
 8000734:	f800283a 	ret

08000738 <setKeycode>:

void setKeycode(WORD keycode)
{
 8000738:	defffe04 	addi	sp,sp,-8
 800073c:	df000115 	stw	fp,4(sp)
 8000740:	df000104 	addi	fp,sp,4
 8000744:	2005883a 	mov	r2,r4
 8000748:	e0bfff0d 	sth	r2,-4(fp)
	//IOWR_ALTERA_AVALON_PIO_DATA(0x8002000, keycode);
	IOWR_ALTERA_AVALON_PIO_DATA(KEYCODE_BASE, keycode);
 800074c:	e0ffff0b 	ldhu	r3,-4(fp)
 8000750:	00806c04 	movi	r2,432
 8000754:	10c00035 	stwio	r3,0(r2)
}
 8000758:	0001883a 	nop
 800075c:	e037883a 	mov	sp,fp
 8000760:	df000017 	ldw	fp,0(sp)
 8000764:	dec00104 	addi	sp,sp,4
 8000768:	f800283a 	ret

0800076c <returnKeys>:

BYTE* returnKeys()
{
 800076c:	defffd04 	addi	sp,sp,-12
 8000770:	dfc00215 	stw	ra,8(sp)
 8000774:	df000115 	stw	fp,4(sp)
 8000778:	df000104 	addi	fp,sp,4
	    BYTE rcode;
		//BOOT_MOUSE_REPORT buf;		//USB mouse report
		//BOOT_KBD_REPORT kbdbuf;

		BYTE runningdebugflag = 0;//flag to dump out a bunch of information when we first get to USB_STATE_RUNNING
 800077c:	e03fff05 	stb	zero,-4(fp)
		BYTE errorflag = 0; //flag once we get an error device so we don't keep dumping out state info
 8000780:	e03fff45 	stb	zero,-3(fp)
		BYTE device = 1;
 8000784:	00800044 	movi	r2,1
 8000788:	e0bfff85 	stb	r2,-2(fp)
		//WORD keycode;

		//printf(".");
		MAX3421E_Task();
 800078c:	80032840 	call	8003284 <MAX3421E_Task>
		USB_Task();
 8000790:	8003a340 	call	8003a34 <USB_Task>
	    //usleep (500000);
		if (GetUsbTaskState() == USB_STATE_RUNNING) {
 8000794:	80041a40 	call	80041a4 <GetUsbTaskState>
 8000798:	10803fcc 	andi	r2,r2,255
 800079c:	10801018 	cmpnei	r2,r2,64
 80007a0:	1000171e 	bne	r2,zero,8000800 <returnKeys+0x94>

		    if (device == 1) {
 80007a4:	e0bfff83 	ldbu	r2,-2(fp)
 80007a8:	10800058 	cmpnei	r2,r2,1
 80007ac:	1000211e 	bne	r2,zero,8000834 <returnKeys+0xc8>
				    //run keyboard debug polling
				    rcode = kbdPoll(&kbdbuf);
 80007b0:	d1275a04 	addi	r4,gp,-25240
 80007b4:	8002ba80 	call	8002ba8 <kbdPoll>
 80007b8:	e0bfffc5 	stb	r2,-1(fp)

					if (rcode == hrNAK) {
 80007bc:	e0bfffc3 	ldbu	r2,-1(fp)
 80007c0:	10800118 	cmpnei	r2,r2,4
 80007c4:	1000021e 	bne	r2,zero,80007d0 <returnKeys+0x64>
					//continue; //NAK means no new data
						return 0;
 80007c8:	0005883a 	mov	r2,zero
 80007cc:	00001a06 	br	8000838 <returnKeys+0xcc>
					} else if (rcode) {
 80007d0:	e0bfffc3 	ldbu	r2,-1(fp)
 80007d4:	10001726 	beq	r2,zero,8000834 <returnKeys+0xc8>
							printf("Rcode: ");
 80007d8:	01020074 	movhi	r4,2049
 80007dc:	211eba04 	addi	r4,r4,31464
 80007e0:	80045d40 	call	80045d4 <printf>
							printf("%x \n", rcode);
 80007e4:	e0bfffc3 	ldbu	r2,-1(fp)
 80007e8:	100b883a 	mov	r5,r2
 80007ec:	01020074 	movhi	r4,2049
 80007f0:	211ea804 	addi	r4,r4,31392
 80007f4:	80045d40 	call	80045d4 <printf>
							return 0;
 80007f8:	0005883a 	mov	r2,zero
 80007fc:	00000e06 	br	8000838 <returnKeys+0xcc>
						//printf("\n");
					}



				} else if (GetUsbTaskState() == USB_STATE_ERROR) {
 8000800:	80041a40 	call	80041a4 <GetUsbTaskState>
 8000804:	10803fcc 	andi	r2,r2,255
 8000808:	10803fd8 	cmpnei	r2,r2,255
 800080c:	1000091e 	bne	r2,zero,8000834 <returnKeys+0xc8>
					if (!errorflag) {
 8000810:	e0bfff43 	ldbu	r2,-3(fp)
 8000814:	1000071e 	bne	r2,zero,8000834 <returnKeys+0xc8>
						errorflag = 1;
 8000818:	00800044 	movi	r2,1
 800081c:	e0bfff45 	stb	r2,-3(fp)
						clearLED(9);
 8000820:	01000244 	movi	r4,9
 8000824:	80004a00 	call	80004a0 <clearLED>
						printf("USB Error State\n");
 8000828:	01020074 	movhi	r4,2049
 800082c:	211ebc04 	addi	r4,r4,31472
 8000830:	80046d00 	call	80046d0 <puts>
						//USB_init();
					//}
					//errorflag = 0;
					//clearLED(9);

		return kbdbuf.keycode;
 8000834:	d0a75a84 	addi	r2,gp,-25238
}
 8000838:	e037883a 	mov	sp,fp
 800083c:	dfc00117 	ldw	ra,4(sp)
 8000840:	df000017 	ldw	fp,0(sp)
 8000844:	dec00204 	addi	sp,sp,8
 8000848:	f800283a 	ret

0800084c <setColorPalette>:
	{"light magenta",  0xf, 0x5, 0xf},
    {"yellow",         0xf, 0xf, 0x5},
	{"white",          0xf, 0xf, 0xf}
};
void setColorPalette (alt_u8 color, alt_u8 red, alt_u8 green, alt_u8 blue)
{
 800084c:	defffa04 	addi	sp,sp,-24
 8000850:	df000515 	stw	fp,20(sp)
 8000854:	df000504 	addi	fp,sp,20
 8000858:	2011883a 	mov	r8,r4
 800085c:	2809883a 	mov	r4,r5
 8000860:	3007883a 	mov	r3,r6
 8000864:	3805883a 	mov	r2,r7
 8000868:	e23ffc05 	stb	r8,-16(fp)
 800086c:	e13ffd05 	stb	r4,-12(fp)
 8000870:	e0fffe05 	stb	r3,-8(fp)
 8000874:	e0bfff05 	stb	r2,-4(fp)
	//fill in this function to set the color palette starting at offset 0x0000 2000 (from base)
	//vga_ctrl->VRAM[2048+(color>>1)];
	//vga_ctrl->pallette[color>>1] |= 0b11111111111111111111111111111111;
	vga_ctrl->pallette[color] &= 0b00000000000000000000000000000000;
 8000878:	d0e00117 	ldw	r3,-32764(gp)
 800087c:	e0bffc03 	ldbu	r2,-16(fp)
 8000880:	10803c04 	addi	r2,r2,240
 8000884:	1085883a 	add	r2,r2,r2
 8000888:	1085883a 	add	r2,r2,r2
 800088c:	1885883a 	add	r2,r3,r2
 8000890:	10800017 	ldw	r2,0(r2)
 8000894:	d0e00117 	ldw	r3,-32764(gp)
 8000898:	e0bffc03 	ldbu	r2,-16(fp)
 800089c:	10803c04 	addi	r2,r2,240
 80008a0:	1085883a 	add	r2,r2,r2
 80008a4:	1085883a 	add	r2,r2,r2
 80008a8:	1885883a 	add	r2,r3,r2
 80008ac:	10000015 	stw	zero,0(r2)
	alt_u32 temp;
	temp = red<<8;
 80008b0:	e0bffd03 	ldbu	r2,-12(fp)
 80008b4:	1004923a 	slli	r2,r2,8
 80008b8:	e0bffb15 	stw	r2,-20(fp)
	temp|= green<<4;
 80008bc:	e0bffe03 	ldbu	r2,-8(fp)
 80008c0:	1004913a 	slli	r2,r2,4
 80008c4:	1007883a 	mov	r3,r2
 80008c8:	e0bffb17 	ldw	r2,-20(fp)
 80008cc:	10c4b03a 	or	r2,r2,r3
 80008d0:	e0bffb15 	stw	r2,-20(fp)
	temp|= blue;
 80008d4:	e0bfff03 	ldbu	r2,-4(fp)
 80008d8:	e0fffb17 	ldw	r3,-20(fp)
 80008dc:	1884b03a 	or	r2,r3,r2
 80008e0:	e0bffb15 	stw	r2,-20(fp)
	vga_ctrl->pallette[color] |= temp;
 80008e4:	d1200117 	ldw	r4,-32764(gp)
 80008e8:	e17ffc03 	ldbu	r5,-16(fp)
 80008ec:	d0e00117 	ldw	r3,-32764(gp)
 80008f0:	e0bffc03 	ldbu	r2,-16(fp)
 80008f4:	10803c04 	addi	r2,r2,240
 80008f8:	1085883a 	add	r2,r2,r2
 80008fc:	1085883a 	add	r2,r2,r2
 8000900:	1885883a 	add	r2,r3,r2
 8000904:	10c00017 	ldw	r3,0(r2)
 8000908:	e0bffb17 	ldw	r2,-20(fp)
 800090c:	1886b03a 	or	r3,r3,r2
 8000910:	28803c04 	addi	r2,r5,240
 8000914:	1085883a 	add	r2,r2,r2
 8000918:	1085883a 	add	r2,r2,r2
 800091c:	2085883a 	add	r2,r4,r2
 8000920:	10c00015 	stw	r3,0(r2)
	}
 8000924:	0001883a 	nop
 8000928:	e037883a 	mov	sp,fp
 800092c:	df000017 	ldw	fp,0(sp)
 8000930:	dec00104 	addi	sp,sp,4
 8000934:	f800283a 	ret

08000938 <isUsed>:


int occupied[200];

//this function determine whether a block is touching the edge
bool isUsed (int x, int y) {
 8000938:	defffc04 	addi	sp,sp,-16
 800093c:	dfc00315 	stw	ra,12(sp)
 8000940:	df000215 	stw	fp,8(sp)
 8000944:	df000204 	addi	fp,sp,8
 8000948:	e13ffe15 	stw	r4,-8(fp)
 800094c:	e17fff15 	stw	r5,-4(fp)
	if((x < 0) || (x >= 10) || (y < 0) || (y >= 20)){
 8000950:	e0bffe17 	ldw	r2,-8(fp)
 8000954:	10000816 	blt	r2,zero,8000978 <isUsed+0x40>
 8000958:	e0bffe17 	ldw	r2,-8(fp)
 800095c:	10800288 	cmpgei	r2,r2,10
 8000960:	1000051e 	bne	r2,zero,8000978 <isUsed+0x40>
 8000964:	e0bfff17 	ldw	r2,-4(fp)
 8000968:	10000316 	blt	r2,zero,8000978 <isUsed+0x40>
 800096c:	e0bfff17 	ldw	r2,-4(fp)
 8000970:	10800510 	cmplti	r2,r2,20
 8000974:	1000021e 	bne	r2,zero,8000980 <isUsed+0x48>
      return true;
 8000978:	00800044 	movi	r2,1
 800097c:	00000d06 	br	80009b4 <isUsed+0x7c>
	}
	else{
		return(occupied[(y*10) + x] != 0);
 8000980:	01400284 	movi	r5,10
 8000984:	e13fff17 	ldw	r4,-4(fp)
 8000988:	80044340 	call	8004434 <__mulsi3>
 800098c:	1007883a 	mov	r3,r2
 8000990:	e0bffe17 	ldw	r2,-8(fp)
 8000994:	1887883a 	add	r3,r3,r2
 8000998:	008200b4 	movhi	r2,2050
 800099c:	10ae9f04 	addi	r2,r2,-17796
 80009a0:	18c7883a 	add	r3,r3,r3
 80009a4:	18c7883a 	add	r3,r3,r3
 80009a8:	10c5883a 	add	r2,r2,r3
 80009ac:	10800017 	ldw	r2,0(r2)
 80009b0:	1004c03a 	cmpne	r2,r2,zero
	}

}
 80009b4:	e037883a 	mov	sp,fp
 80009b8:	dfc00117 	ldw	ra,4(sp)
 80009bc:	df000017 	ldw	fp,0(sp)
 80009c0:	dec00204 	addi	sp,sp,8
 80009c4:	f800283a 	ret

080009c8 <removeRow>:
int removeRow(int y){
 80009c8:	defff804 	addi	sp,sp,-32
 80009cc:	dfc00715 	stw	ra,28(sp)
 80009d0:	df000615 	stw	fp,24(sp)
 80009d4:	df000604 	addi	fp,sp,24
 80009d8:	e13fff15 	stw	r4,-4(fp)
	int rowCount = 0;
 80009dc:	e03ffa15 	stw	zero,-24(fp)
	int colCount = 0;
 80009e0:	e03ffb15 	stw	zero,-20(fp)
	for(int i=y;i<=y+3;i++){
 80009e4:	e0bfff17 	ldw	r2,-4(fp)
 80009e8:	e0bffc15 	stw	r2,-16(fp)
 80009ec:	00007506 	br	8000bc4 <removeRow+0x1fc>
		if(i<20){
 80009f0:	e0bffc17 	ldw	r2,-16(fp)
 80009f4:	10800508 	cmpgei	r2,r2,20
 80009f8:	10006f1e 	bne	r2,zero,8000bb8 <removeRow+0x1f0>
			for(int j = 0;j<10;j++){
 80009fc:	e03ffd15 	stw	zero,-12(fp)
 8000a00:	00001306 	br	8000a50 <removeRow+0x88>
				if(occupied[i*10 + j] != 0){
 8000a04:	01400284 	movi	r5,10
 8000a08:	e13ffc17 	ldw	r4,-16(fp)
 8000a0c:	80044340 	call	8004434 <__mulsi3>
 8000a10:	1007883a 	mov	r3,r2
 8000a14:	e0bffd17 	ldw	r2,-12(fp)
 8000a18:	1887883a 	add	r3,r3,r2
 8000a1c:	008200b4 	movhi	r2,2050
 8000a20:	10ae9f04 	addi	r2,r2,-17796
 8000a24:	18c7883a 	add	r3,r3,r3
 8000a28:	18c7883a 	add	r3,r3,r3
 8000a2c:	10c5883a 	add	r2,r2,r3
 8000a30:	10800017 	ldw	r2,0(r2)
 8000a34:	10000326 	beq	r2,zero,8000a44 <removeRow+0x7c>
					colCount ++;
 8000a38:	e0bffb17 	ldw	r2,-20(fp)
 8000a3c:	10800044 	addi	r2,r2,1
 8000a40:	e0bffb15 	stw	r2,-20(fp)
int removeRow(int y){
	int rowCount = 0;
	int colCount = 0;
	for(int i=y;i<=y+3;i++){
		if(i<20){
			for(int j = 0;j<10;j++){
 8000a44:	e0bffd17 	ldw	r2,-12(fp)
 8000a48:	10800044 	addi	r2,r2,1
 8000a4c:	e0bffd15 	stw	r2,-12(fp)
 8000a50:	e0bffd17 	ldw	r2,-12(fp)
 8000a54:	10800290 	cmplti	r2,r2,10
 8000a58:	103fea1e 	bne	r2,zero,8000a04 <__alt_data_end+0xfc000a04>
				if(occupied[i*10 + j] != 0){
					colCount ++;
				}
			}
			if(colCount == 10){
 8000a5c:	e0bffb17 	ldw	r2,-20(fp)
 8000a60:	10800298 	cmpnei	r2,r2,10
 8000a64:	1000531e 	bne	r2,zero,8000bb4 <removeRow+0x1ec>
			printf("%x \n", y);
 8000a68:	e17fff17 	ldw	r5,-4(fp)
 8000a6c:	01020074 	movhi	r4,2049
 8000a70:	211ea804 	addi	r4,r4,31392
 8000a74:	80045d40 	call	80045d4 <printf>
				for(int k = ((i)*10+9);k>0;k--){
 8000a78:	01400284 	movi	r5,10
 8000a7c:	e13ffc17 	ldw	r4,-16(fp)
 8000a80:	80044340 	call	8004434 <__mulsi3>
 8000a84:	10800244 	addi	r2,r2,9
 8000a88:	e0bffe15 	stw	r2,-8(fp)
 8000a8c:	00004406 	br	8000ba0 <removeRow+0x1d8>
					if(k < 200){
 8000a90:	e0bffe17 	ldw	r2,-8(fp)
 8000a94:	10803208 	cmpgei	r2,r2,200
 8000a98:	10003e1e 	bne	r2,zero,8000b94 <removeRow+0x1cc>
					if((k-(10)) >= 0){
 8000a9c:	e0bffe17 	ldw	r2,-8(fp)
 8000aa0:	10bffd84 	addi	r2,r2,-10
 8000aa4:	10002e16 	blt	r2,zero,8000b60 <removeRow+0x198>
						vga_ctrl->VRAM[k-10] = 0b00000000000000000000000000000000;
 8000aa8:	d0e00117 	ldw	r3,-32764(gp)
 8000aac:	e0bffe17 	ldw	r2,-8(fp)
 8000ab0:	10bffd84 	addi	r2,r2,-10
 8000ab4:	1085883a 	add	r2,r2,r2
 8000ab8:	1085883a 	add	r2,r2,r2
 8000abc:	1885883a 	add	r2,r3,r2
 8000ac0:	10000015 	stw	zero,0(r2)
						vga_ctrl->VRAM[k] = occupied[k-10];
 8000ac4:	d1200117 	ldw	r4,-32764(gp)
 8000ac8:	e0bffe17 	ldw	r2,-8(fp)
 8000acc:	10fffd84 	addi	r3,r2,-10
 8000ad0:	008200b4 	movhi	r2,2050
 8000ad4:	10ae9f04 	addi	r2,r2,-17796
 8000ad8:	18c7883a 	add	r3,r3,r3
 8000adc:	18c7883a 	add	r3,r3,r3
 8000ae0:	10c5883a 	add	r2,r2,r3
 8000ae4:	10800017 	ldw	r2,0(r2)
 8000ae8:	1007883a 	mov	r3,r2
 8000aec:	e0bffe17 	ldw	r2,-8(fp)
 8000af0:	1085883a 	add	r2,r2,r2
 8000af4:	1085883a 	add	r2,r2,r2
 8000af8:	2085883a 	add	r2,r4,r2
 8000afc:	10c00015 	stw	r3,0(r2)
						occupied[k] = occupied[k-10];
 8000b00:	e0bffe17 	ldw	r2,-8(fp)
 8000b04:	10fffd84 	addi	r3,r2,-10
 8000b08:	008200b4 	movhi	r2,2050
 8000b0c:	10ae9f04 	addi	r2,r2,-17796
 8000b10:	18c7883a 	add	r3,r3,r3
 8000b14:	18c7883a 	add	r3,r3,r3
 8000b18:	10c5883a 	add	r2,r2,r3
 8000b1c:	11000017 	ldw	r4,0(r2)
 8000b20:	008200b4 	movhi	r2,2050
 8000b24:	10ae9f04 	addi	r2,r2,-17796
 8000b28:	e0fffe17 	ldw	r3,-8(fp)
 8000b2c:	18c7883a 	add	r3,r3,r3
 8000b30:	18c7883a 	add	r3,r3,r3
 8000b34:	10c5883a 	add	r2,r2,r3
 8000b38:	11000015 	stw	r4,0(r2)
						occupied[k-10] = 0;
 8000b3c:	e0bffe17 	ldw	r2,-8(fp)
 8000b40:	10fffd84 	addi	r3,r2,-10
 8000b44:	008200b4 	movhi	r2,2050
 8000b48:	10ae9f04 	addi	r2,r2,-17796
 8000b4c:	18c7883a 	add	r3,r3,r3
 8000b50:	18c7883a 	add	r3,r3,r3
 8000b54:	10c5883a 	add	r2,r2,r3
 8000b58:	10000015 	stw	zero,0(r2)
 8000b5c:	00000d06 	br	8000b94 <removeRow+0x1cc>
					}
					else{
						vga_ctrl->VRAM[k] = 0b00000000000000000000000000000000;
 8000b60:	d0e00117 	ldw	r3,-32764(gp)
 8000b64:	e0bffe17 	ldw	r2,-8(fp)
 8000b68:	1085883a 	add	r2,r2,r2
 8000b6c:	1085883a 	add	r2,r2,r2
 8000b70:	1885883a 	add	r2,r3,r2
 8000b74:	10000015 	stw	zero,0(r2)
						occupied[k] = 0;
 8000b78:	008200b4 	movhi	r2,2050
 8000b7c:	10ae9f04 	addi	r2,r2,-17796
 8000b80:	e0fffe17 	ldw	r3,-8(fp)
 8000b84:	18c7883a 	add	r3,r3,r3
 8000b88:	18c7883a 	add	r3,r3,r3
 8000b8c:	10c5883a 	add	r2,r2,r3
 8000b90:	10000015 	stw	zero,0(r2)
					colCount ++;
				}
			}
			if(colCount == 10){
			printf("%x \n", y);
				for(int k = ((i)*10+9);k>0;k--){
 8000b94:	e0bffe17 	ldw	r2,-8(fp)
 8000b98:	10bfffc4 	addi	r2,r2,-1
 8000b9c:	e0bffe15 	stw	r2,-8(fp)
 8000ba0:	e0bffe17 	ldw	r2,-8(fp)
 8000ba4:	00bfba16 	blt	zero,r2,8000a90 <__alt_data_end+0xfc000a90>
						vga_ctrl->VRAM[k] = 0b00000000000000000000000000000000;
						occupied[k] = 0;
					}
					}
				}
				rowCount++;
 8000ba8:	e0bffa17 	ldw	r2,-24(fp)
 8000bac:	10800044 	addi	r2,r2,1
 8000bb0:	e0bffa15 	stw	r2,-24(fp)
			}
			colCount = 0;
 8000bb4:	e03ffb15 	stw	zero,-20(fp)

}
int removeRow(int y){
	int rowCount = 0;
	int colCount = 0;
	for(int i=y;i<=y+3;i++){
 8000bb8:	e0bffc17 	ldw	r2,-16(fp)
 8000bbc:	10800044 	addi	r2,r2,1
 8000bc0:	e0bffc15 	stw	r2,-16(fp)
 8000bc4:	e0bfff17 	ldw	r2,-4(fp)
 8000bc8:	10c000c4 	addi	r3,r2,3
 8000bcc:	e0bffc17 	ldw	r2,-16(fp)
 8000bd0:	18bf870e 	bge	r3,r2,80009f0 <__alt_data_end+0xfc0009f0>
			}
			colCount = 0;
		}

	}
	return rowCount;
 8000bd4:	e0bffa17 	ldw	r2,-24(fp)
}
 8000bd8:	e037883a 	mov	sp,fp
 8000bdc:	dfc00117 	ldw	ra,4(sp)
 8000be0:	df000017 	ldw	fp,0(sp)
 8000be4:	dec00204 	addi	sp,sp,8
 8000be8:	f800283a 	ret

08000bec <placeNewTet>:
bool placeNewTet(int val,int color){
 8000bec:	defff204 	addi	sp,sp,-56
 8000bf0:	dfc00d15 	stw	ra,52(sp)
 8000bf4:	df000c15 	stw	fp,48(sp)
 8000bf8:	df000c04 	addi	fp,sp,48
 8000bfc:	e13ffe15 	stw	r4,-8(fp)
 8000c00:	e17fff15 	stw	r5,-4(fp)
	int x = 3;
 8000c04:	008000c4 	movi	r2,3
 8000c08:	e0bff415 	stw	r2,-48(fp)
	int y = 0;
 8000c0c:	e03ff515 	stw	zero,-44(fp)
	bool finish = true;
 8000c10:	00800044 	movi	r2,1
 8000c14:	e0bff605 	stb	r2,-40(fp)
	int blocks[4] = {0,0,0,0};
 8000c18:	e03ffa15 	stw	zero,-24(fp)
 8000c1c:	e03ffb15 	stw	zero,-20(fp)
 8000c20:	e03ffc15 	stw	zero,-16(fp)
 8000c24:	e03ffd15 	stw	zero,-12(fp)
	int block_count = 0;
 8000c28:	e03ff715 	stw	zero,-36(fp)
	for(int bit = 0x8000 ; bit > 0 ; bit = bit >> 1) {
 8000c2c:	00a00014 	movui	r2,32768
 8000c30:	e0bff815 	stw	r2,-32(fp)
 8000c34:	00002b06 	br	8000ce4 <placeNewTet+0xf8>
		if((val & bit) != 0){
 8000c38:	e0fffe17 	ldw	r3,-8(fp)
 8000c3c:	e0bff817 	ldw	r2,-32(fp)
 8000c40:	1884703a 	and	r2,r3,r2
 8000c44:	10001926 	beq	r2,zero,8000cac <placeNewTet+0xc0>
			if(isUsed(x,y)){
 8000c48:	e17ff517 	ldw	r5,-44(fp)
 8000c4c:	e13ff417 	ldw	r4,-48(fp)
 8000c50:	80009380 	call	8000938 <isUsed>
 8000c54:	10803fcc 	andi	r2,r2,255
 8000c58:	10000226 	beq	r2,zero,8000c64 <placeNewTet+0x78>
				finish = false;
 8000c5c:	e03ff605 	stb	zero,-40(fp)
				break;
 8000c60:	00002206 	br	8000cec <placeNewTet+0x100>
			}
			else{
			blocks[block_count] = y*10+x;
 8000c64:	01400284 	movi	r5,10
 8000c68:	e13ff517 	ldw	r4,-44(fp)
 8000c6c:	80044340 	call	8004434 <__mulsi3>
 8000c70:	1007883a 	mov	r3,r2
 8000c74:	e0bff417 	ldw	r2,-48(fp)
 8000c78:	1887883a 	add	r3,r3,r2
 8000c7c:	e0bff717 	ldw	r2,-36(fp)
 8000c80:	1085883a 	add	r2,r2,r2
 8000c84:	1085883a 	add	r2,r2,r2
 8000c88:	e13ff404 	addi	r4,fp,-48
 8000c8c:	2085883a 	add	r2,r4,r2
 8000c90:	10800604 	addi	r2,r2,24
 8000c94:	10c00015 	stw	r3,0(r2)
			block_count++;
 8000c98:	e0bff717 	ldw	r2,-36(fp)
 8000c9c:	10800044 	addi	r2,r2,1
 8000ca0:	e0bff715 	stw	r2,-36(fp)
			finish = true;
 8000ca4:	00800044 	movi	r2,1
 8000ca8:	e0bff605 	stb	r2,-40(fp)
			}
			}
		x++;
 8000cac:	e0bff417 	ldw	r2,-48(fp)
 8000cb0:	10800044 	addi	r2,r2,1
 8000cb4:	e0bff415 	stw	r2,-48(fp)
		if(x > 6){
 8000cb8:	e0bff417 	ldw	r2,-48(fp)
 8000cbc:	108001d0 	cmplti	r2,r2,7
 8000cc0:	1000051e 	bne	r2,zero,8000cd8 <placeNewTet+0xec>
		x = 3;
 8000cc4:	008000c4 	movi	r2,3
 8000cc8:	e0bff415 	stw	r2,-48(fp)
		y++;
 8000ccc:	e0bff517 	ldw	r2,-44(fp)
 8000cd0:	10800044 	addi	r2,r2,1
 8000cd4:	e0bff515 	stw	r2,-44(fp)
	int x = 3;
	int y = 0;
	bool finish = true;
	int blocks[4] = {0,0,0,0};
	int block_count = 0;
	for(int bit = 0x8000 ; bit > 0 ; bit = bit >> 1) {
 8000cd8:	e0bff817 	ldw	r2,-32(fp)
 8000cdc:	1005d07a 	srai	r2,r2,1
 8000ce0:	e0bff815 	stw	r2,-32(fp)
 8000ce4:	e0bff817 	ldw	r2,-32(fp)
 8000ce8:	00bfd316 	blt	zero,r2,8000c38 <__alt_data_end+0xfc000c38>
		if(x > 6){
		x = 3;
		y++;
		}
}
	if(finish){
 8000cec:	e0bff603 	ldbu	r2,-40(fp)
 8000cf0:	10002326 	beq	r2,zero,8000d80 <placeNewTet+0x194>
		for(int i =0;i<4;i++){
 8000cf4:	e03ff915 	stw	zero,-28(fp)
 8000cf8:	00001e06 	br	8000d74 <placeNewTet+0x188>
			//printf("%x \n",blocks[i]);
			occupied[blocks[i]] = color;
 8000cfc:	e0bff917 	ldw	r2,-28(fp)
 8000d00:	1085883a 	add	r2,r2,r2
 8000d04:	1085883a 	add	r2,r2,r2
 8000d08:	e0fff404 	addi	r3,fp,-48
 8000d0c:	1885883a 	add	r2,r3,r2
 8000d10:	10800604 	addi	r2,r2,24
 8000d14:	10c00017 	ldw	r3,0(r2)
 8000d18:	008200b4 	movhi	r2,2050
 8000d1c:	10ae9f04 	addi	r2,r2,-17796
 8000d20:	18c7883a 	add	r3,r3,r3
 8000d24:	18c7883a 	add	r3,r3,r3
 8000d28:	10c5883a 	add	r2,r2,r3
 8000d2c:	e0ffff17 	ldw	r3,-4(fp)
 8000d30:	10c00015 	stw	r3,0(r2)
			vga_ctrl->VRAM[blocks[i]] = color;
 8000d34:	d1200117 	ldw	r4,-32764(gp)
 8000d38:	e0bff917 	ldw	r2,-28(fp)
 8000d3c:	1085883a 	add	r2,r2,r2
 8000d40:	1085883a 	add	r2,r2,r2
 8000d44:	e0fff404 	addi	r3,fp,-48
 8000d48:	1885883a 	add	r2,r3,r2
 8000d4c:	10800604 	addi	r2,r2,24
 8000d50:	10800017 	ldw	r2,0(r2)
 8000d54:	e0ffff17 	ldw	r3,-4(fp)
 8000d58:	1085883a 	add	r2,r2,r2
 8000d5c:	1085883a 	add	r2,r2,r2
 8000d60:	2085883a 	add	r2,r4,r2
 8000d64:	10c00015 	stw	r3,0(r2)
		x = 3;
		y++;
		}
}
	if(finish){
		for(int i =0;i<4;i++){
 8000d68:	e0bff917 	ldw	r2,-28(fp)
 8000d6c:	10800044 	addi	r2,r2,1
 8000d70:	e0bff915 	stw	r2,-28(fp)
 8000d74:	e0bff917 	ldw	r2,-28(fp)
 8000d78:	10800110 	cmplti	r2,r2,4
 8000d7c:	103fdf1e 	bne	r2,zero,8000cfc <__alt_data_end+0xfc000cfc>
			occupied[blocks[i]] = color;
			vga_ctrl->VRAM[blocks[i]] = color;
		}

	}
	return finish;
 8000d80:	e0bff603 	ldbu	r2,-40(fp)
}
 8000d84:	e037883a 	mov	sp,fp
 8000d88:	dfc00117 	ldw	ra,4(sp)
 8000d8c:	df000017 	ldw	fp,0(sp)
 8000d90:	dec00204 	addi	sp,sp,8
 8000d94:	f800283a 	ret

08000d98 <initGame>:

void initGame(){
 8000d98:	defffc04 	addi	sp,sp,-16
 8000d9c:	dfc00315 	stw	ra,12(sp)
 8000da0:	df000215 	stw	fp,8(sp)
 8000da4:	dc000115 	stw	r16,4(sp)
 8000da8:	df000204 	addi	fp,sp,8
	for(int i=0;i<200;i++){
 8000dac:	e03ffe15 	stw	zero,-8(fp)
 8000db0:	00001e06 	br	8000e2c <initGame+0x94>
			vga_ctrl->VRAM[i] = rand()%7 +1;
 8000db4:	d4200117 	ldw	r16,-32764(gp)
 8000db8:	80046fc0 	call	80046fc <rand>
 8000dbc:	014001c4 	movi	r5,7
 8000dc0:	1009883a 	mov	r4,r2
 8000dc4:	80043040 	call	8004304 <__modsi3>
 8000dc8:	10800044 	addi	r2,r2,1
 8000dcc:	1007883a 	mov	r3,r2
 8000dd0:	e0bffe17 	ldw	r2,-8(fp)
 8000dd4:	1085883a 	add	r2,r2,r2
 8000dd8:	1085883a 	add	r2,r2,r2
 8000ddc:	8085883a 	add	r2,r16,r2
 8000de0:	10c00015 	stw	r3,0(r2)
			usleep(5000);
 8000de4:	0104e204 	movi	r4,5000
 8000de8:	80158d40 	call	80158d4 <usleep>
			vga_ctrl->VRAM[i] = 0b00000000000000000000000000000000;
 8000dec:	d0e00117 	ldw	r3,-32764(gp)
 8000df0:	e0bffe17 	ldw	r2,-8(fp)
 8000df4:	1085883a 	add	r2,r2,r2
 8000df8:	1085883a 	add	r2,r2,r2
 8000dfc:	1885883a 	add	r2,r3,r2
 8000e00:	10000015 	stw	zero,0(r2)
			occupied[i] = 0;
 8000e04:	008200b4 	movhi	r2,2050
 8000e08:	10ae9f04 	addi	r2,r2,-17796
 8000e0c:	e0fffe17 	ldw	r3,-8(fp)
 8000e10:	18c7883a 	add	r3,r3,r3
 8000e14:	18c7883a 	add	r3,r3,r3
 8000e18:	10c5883a 	add	r2,r2,r3
 8000e1c:	10000015 	stw	zero,0(r2)
	}
	return finish;
}

void initGame(){
	for(int i=0;i<200;i++){
 8000e20:	e0bffe17 	ldw	r2,-8(fp)
 8000e24:	10800044 	addi	r2,r2,1
 8000e28:	e0bffe15 	stw	r2,-8(fp)
 8000e2c:	e0bffe17 	ldw	r2,-8(fp)
 8000e30:	10803210 	cmplti	r2,r2,200
 8000e34:	103fdf1e 	bne	r2,zero,8000db4 <__alt_data_end+0xfc000db4>
			vga_ctrl->VRAM[i] = rand()%7 +1;
			usleep(5000);
			vga_ctrl->VRAM[i] = 0b00000000000000000000000000000000;
			occupied[i] = 0;
		}
	usleep(70000);
 8000e38:	01000074 	movhi	r4,1
 8000e3c:	21045c04 	addi	r4,r4,4464
 8000e40:	80158d40 	call	80158d4 <usleep>
}
 8000e44:	0001883a 	nop
 8000e48:	e6ffff04 	addi	sp,fp,-4
 8000e4c:	dfc00217 	ldw	ra,8(sp)
 8000e50:	df000117 	ldw	fp,4(sp)
 8000e54:	dc000017 	ldw	r16,0(sp)
 8000e58:	dec00304 	addi	sp,sp,12
 8000e5c:	f800283a 	ret

08000e60 <genTet>:
int pieceNums[28] = {0,0,0,0,1,1,1,1,2,2,2,2,3,3,3,3,4,4,4,4,5,5,5,5,6,6,6,6};
int pieceCount = 0;
int genTet(){
 8000e60:	defffb04 	addi	sp,sp,-20
 8000e64:	dfc00415 	stw	ra,16(sp)
 8000e68:	df000315 	stw	fp,12(sp)
 8000e6c:	df000304 	addi	fp,sp,12
	int res = -1;
 8000e70:	00bfffc4 	movi	r2,-1
 8000e74:	e0bfff15 	stw	r2,-4(fp)
	if(pieceCount == 28){
 8000e78:	d0a75917 	ldw	r2,-25244(gp)
 8000e7c:	10800718 	cmpnei	r2,r2,28
 8000e80:	1000151e 	bne	r2,zero,8000ed8 <genTet+0x78>
		pieceCount = 0;
 8000e84:	d0275915 	stw	zero,-25244(gp)
		for(int i=0;i<28;i++){
 8000e88:	e03ffd15 	stw	zero,-12(fp)
 8000e8c:	00000f06 	br	8000ecc <genTet+0x6c>
			pieceNums[i] = i/4;
 8000e90:	e0bffd17 	ldw	r2,-12(fp)
 8000e94:	1000010e 	bge	r2,zero,8000e9c <genTet+0x3c>
 8000e98:	108000c4 	addi	r2,r2,3
 8000e9c:	1005d0ba 	srai	r2,r2,2
 8000ea0:	1009883a 	mov	r4,r2
 8000ea4:	008200b4 	movhi	r2,2050
 8000ea8:	10a04404 	addi	r2,r2,-32496
 8000eac:	e0fffd17 	ldw	r3,-12(fp)
 8000eb0:	18c7883a 	add	r3,r3,r3
 8000eb4:	18c7883a 	add	r3,r3,r3
 8000eb8:	10c5883a 	add	r2,r2,r3
 8000ebc:	11000015 	stw	r4,0(r2)
int pieceCount = 0;
int genTet(){
	int res = -1;
	if(pieceCount == 28){
		pieceCount = 0;
		for(int i=0;i<28;i++){
 8000ec0:	e0bffd17 	ldw	r2,-12(fp)
 8000ec4:	10800044 	addi	r2,r2,1
 8000ec8:	e0bffd15 	stw	r2,-12(fp)
 8000ecc:	e0bffd17 	ldw	r2,-12(fp)
 8000ed0:	10800710 	cmplti	r2,r2,28
 8000ed4:	103fee1e 	bne	r2,zero,8000e90 <__alt_data_end+0xfc000e90>
			pieceNums[i] = i/4;
		}
	}
	int select = rand()%28;
 8000ed8:	80046fc0 	call	80046fc <rand>
 8000edc:	01400704 	movi	r5,28
 8000ee0:	1009883a 	mov	r4,r2
 8000ee4:	80043040 	call	8004304 <__modsi3>
 8000ee8:	e0bffe15 	stw	r2,-8(fp)
	while(pieceNums[select] == -1){
 8000eec:	00000506 	br	8000f04 <genTet+0xa4>
		select = rand()%28;
 8000ef0:	80046fc0 	call	80046fc <rand>
 8000ef4:	01400704 	movi	r5,28
 8000ef8:	1009883a 	mov	r4,r2
 8000efc:	80043040 	call	8004304 <__modsi3>
 8000f00:	e0bffe15 	stw	r2,-8(fp)
		for(int i=0;i<28;i++){
			pieceNums[i] = i/4;
		}
	}
	int select = rand()%28;
	while(pieceNums[select] == -1){
 8000f04:	008200b4 	movhi	r2,2050
 8000f08:	10a04404 	addi	r2,r2,-32496
 8000f0c:	e0fffe17 	ldw	r3,-8(fp)
 8000f10:	18c7883a 	add	r3,r3,r3
 8000f14:	18c7883a 	add	r3,r3,r3
 8000f18:	10c5883a 	add	r2,r2,r3
 8000f1c:	10800017 	ldw	r2,0(r2)
 8000f20:	10bfffe0 	cmpeqi	r2,r2,-1
 8000f24:	103ff21e 	bne	r2,zero,8000ef0 <__alt_data_end+0xfc000ef0>
		select = rand()%28;
	}
	res = pieceNums[select];
 8000f28:	008200b4 	movhi	r2,2050
 8000f2c:	10a04404 	addi	r2,r2,-32496
 8000f30:	e0fffe17 	ldw	r3,-8(fp)
 8000f34:	18c7883a 	add	r3,r3,r3
 8000f38:	18c7883a 	add	r3,r3,r3
 8000f3c:	10c5883a 	add	r2,r2,r3
 8000f40:	10800017 	ldw	r2,0(r2)
 8000f44:	e0bfff15 	stw	r2,-4(fp)
	pieceNums[select] = -1;
 8000f48:	008200b4 	movhi	r2,2050
 8000f4c:	10a04404 	addi	r2,r2,-32496
 8000f50:	e0fffe17 	ldw	r3,-8(fp)
 8000f54:	18c7883a 	add	r3,r3,r3
 8000f58:	18c7883a 	add	r3,r3,r3
 8000f5c:	10c5883a 	add	r2,r2,r3
 8000f60:	00ffffc4 	movi	r3,-1
 8000f64:	10c00015 	stw	r3,0(r2)
	return res;
 8000f68:	e0bfff17 	ldw	r2,-4(fp)
}
 8000f6c:	e037883a 	mov	sp,fp
 8000f70:	dfc00117 	ldw	ra,4(sp)
 8000f74:	df000017 	ldw	fp,0(sp)
 8000f78:	dec00204 	addi	sp,sp,8
 8000f7c:	f800283a 	ret

08000f80 <textVGADrawColorText>:


void textVGADrawColorText(char* str, int offset)
{
 8000f80:	defffc04 	addi	sp,sp,-16
 8000f84:	df000315 	stw	fp,12(sp)
 8000f88:	df000304 	addi	fp,sp,12
 8000f8c:	e13ffe15 	stw	r4,-8(fp)
 8000f90:	e17fff15 	stw	r5,-4(fp)
	int i = 0;
 8000f94:	e03ffd15 	stw	zero,-12(fp)
	while (str[i]!=0)
 8000f98:	00001206 	br	8000fe4 <textVGADrawColorText+0x64>
	{
		vga_ctrl->VRAM[i+offset] = str[i];
 8000f9c:	d1200117 	ldw	r4,-32764(gp)
 8000fa0:	e0fffd17 	ldw	r3,-12(fp)
 8000fa4:	e0bfff17 	ldw	r2,-4(fp)
 8000fa8:	1885883a 	add	r2,r3,r2
 8000fac:	e0fffd17 	ldw	r3,-12(fp)
 8000fb0:	e17ffe17 	ldw	r5,-8(fp)
 8000fb4:	28c7883a 	add	r3,r5,r3
 8000fb8:	18c00003 	ldbu	r3,0(r3)
 8000fbc:	18c03fcc 	andi	r3,r3,255
 8000fc0:	18c0201c 	xori	r3,r3,128
 8000fc4:	18ffe004 	addi	r3,r3,-128
 8000fc8:	1085883a 	add	r2,r2,r2
 8000fcc:	1085883a 	add	r2,r2,r2
 8000fd0:	2085883a 	add	r2,r4,r2
 8000fd4:	10c00015 	stw	r3,0(r2)
		//vga_ctrl->VRAM[(y*COLUMNS + x + i) * 2 + 1] = str[i];

		i++;
 8000fd8:	e0bffd17 	ldw	r2,-12(fp)
 8000fdc:	10800044 	addi	r2,r2,1
 8000fe0:	e0bffd15 	stw	r2,-12(fp)


void textVGADrawColorText(char* str, int offset)
{
	int i = 0;
	while (str[i]!=0)
 8000fe4:	e0bffd17 	ldw	r2,-12(fp)
 8000fe8:	e0fffe17 	ldw	r3,-8(fp)
 8000fec:	1885883a 	add	r2,r3,r2
 8000ff0:	10800003 	ldbu	r2,0(r2)
 8000ff4:	10803fcc 	andi	r2,r2,255
 8000ff8:	1080201c 	xori	r2,r2,128
 8000ffc:	10bfe004 	addi	r2,r2,-128
 8001000:	103fe61e 	bne	r2,zero,8000f9c <__alt_data_end+0xfc000f9c>
		vga_ctrl->VRAM[i+offset] = str[i];
		//vga_ctrl->VRAM[(y*COLUMNS + x + i) * 2 + 1] = str[i];

		i++;
	}
}
 8001004:	0001883a 	nop
 8001008:	e037883a 	mov	sp,fp
 800100c:	df000017 	ldw	fp,0(sp)
 8001010:	dec00104 	addi	sp,sp,4
 8001014:	f800283a 	ret

08001018 <main>:



int main() {
 8001018:	deff7604 	addi	sp,sp,-552
 800101c:	dfc08915 	stw	ra,548(sp)
 8001020:	df008815 	stw	fp,544(sp)
 8001024:	dcc08715 	stw	r19,540(sp)
 8001028:	dc808615 	stw	r18,536(sp)
 800102c:	dc408515 	stw	r17,532(sp)
 8001030:	dc008415 	stw	r16,528(sp)
 8001034:	df008804 	addi	fp,sp,544

	printf("initializing MAX3421E...\n");
 8001038:	01020074 	movhi	r4,2049
 800103c:	211ec004 	addi	r4,r4,31488
 8001040:	80046d00 	call	80046d0 <puts>
	MAX3421E_init();
 8001044:	80031f00 	call	80031f0 <MAX3421E_init>
	printf("initializing USB...\n");
 8001048:	01020074 	movhi	r4,2049
 800104c:	211ec704 	addi	r4,r4,31516
 8001050:	80046d00 	call	80046d0 <puts>
	USB_init();
 8001054:	800399c0 	call	800399c <USB_init>
	srand(time(0));
 8001058:	0009883a 	mov	r4,zero
 800105c:	8006b780 	call	8006b78 <time>
 8001060:	1009883a 	mov	r4,r2
 8001064:	80046e40 	call	80046e4 <srand>
	printf("%x \n",time(0));
 8001068:	0009883a 	mov	r4,zero
 800106c:	8006b780 	call	8006b78 <time>
 8001070:	100b883a 	mov	r5,r2
 8001074:	01020074 	movhi	r4,2049
 8001078:	211ea804 	addi	r4,r4,31392
 800107c:	80045d40 	call	80045d4 <printf>
	bool move = true;
 8001080:	00800044 	movi	r2,1
 8001084:	e0bf7805 	stb	r2,-544(fp)
	BYTE* curr; //this can be wasd
	int x = 3;
 8001088:	008000c4 	movi	r2,3
 800108c:	e0bf7a15 	stw	r2,-536(fp)
	int y = 0;
 8001090:	e03f7b15 	stw	zero,-532(fp)
	int currx = 0;
 8001094:	e03f7c15 	stw	zero,-528(fp)
	int curry = 0;
 8001098:	e03f7d15 	stw	zero,-524(fp)
	int curr_tet = 0;
 800109c:	e03f7e15 	stw	zero,-520(fp)
	int curr_rot = 0;
 80010a0:	e03f7f15 	stw	zero,-516(fp)
	int blocks[4] = {0,0,0,0};
 80010a4:	e03f9a15 	stw	zero,-408(fp)
 80010a8:	e03f9b15 	stw	zero,-404(fp)
 80010ac:	e03f9c15 	stw	zero,-400(fp)
 80010b0:	e03f9d15 	stw	zero,-396(fp)
	int rot_blocks[4] = {0,0,0,0};
 80010b4:	e03f9e15 	stw	zero,-392(fp)
 80010b8:	e03f9f15 	stw	zero,-388(fp)
 80010bc:	e03fa015 	stw	zero,-384(fp)
 80010c0:	e03fa115 	stw	zero,-380(fp)
	int block_count = 0;
 80010c4:	e03f8015 	stw	zero,-512(fp)
	int select = 0;
 80010c8:	e03f8115 	stw	zero,-508(fp)
	int new_rot = 0;
 80010cc:	e03f9715 	stw	zero,-420(fp)
	int rot_count =0;
 80010d0:	e03f8215 	stw	zero,-504(fp)
	bool last = false;
 80010d4:	e03f8305 	stb	zero,-500(fp)
	bool last_down[4] = {false,false,false,false};
 80010d8:	e03fa205 	stb	zero,-376(fp)
 80010dc:	e03fa245 	stb	zero,-375(fp)
 80010e0:	e03fa285 	stb	zero,-374(fp)
 80010e4:	e03fa2c5 	stb	zero,-373(fp)
	bool now_down[4] = {false,false,false,false};
 80010e8:	e03fa305 	stb	zero,-372(fp)
 80010ec:	e03fa345 	stb	zero,-371(fp)
 80010f0:	e03fa385 	stb	zero,-370(fp)
 80010f4:	e03fa3c5 	stb	zero,-369(fp)
	bool flag = true;
 80010f8:	00800044 	movi	r2,1
 80010fc:	e0bf8345 	stb	r2,-499(fp)
	BYTE fail = 0x0F;
 8001100:	008003c4 	movi	r2,15
 8001104:	e0bf9805 	stb	r2,-416(fp)
	int lines = 0;
 8001108:	e03f8415 	stw	zero,-496(fp)
	int currLines = 0;
 800110c:	e03f9915 	stw	zero,-412(fp)
	int score = 0;
 8001110:	e03f8515 	stw	zero,-492(fp)
	int level = 1;
 8001114:	00800044 	movi	r2,1
 8001118:	e0bf8615 	stw	r2,-488(fp)
	int levelThreshold = 0;
 800111c:	e03f8715 	stw	zero,-484(fp)
	char score_string[80];
	char level_string[80];
	char line_string[80];
	int pieces[7][4] = {
 8001120:	00820074 	movhi	r2,2049
 8001124:	109ed504 	addi	r2,r2,31572
 8001128:	e0ffe004 	addi	r3,fp,-128
 800112c:	1009883a 	mov	r4,r2
 8001130:	00801c04 	movi	r2,112
 8001134:	100d883a 	mov	r6,r2
 8001138:	200b883a 	mov	r5,r4
 800113c:	1809883a 	mov	r4,r3
 8001140:	800445c0 	call	800445c <memcpy>


	//sprintf(score_string, "Score : %d", score);
	//textVGADrawColorText (score_string);

	for (int i = 0; i < 16; i++)
 8001144:	e03f8815 	stw	zero,-480(fp)
 8001148:	00002806 	br	80011ec <main+0x1d4>
		{
			setColorPalette (i, colors[i].red, colors[i].green, colors[i].blue);
 800114c:	e0bf8817 	ldw	r2,-480(fp)
 8001150:	14403fcc 	andi	r17,r2,255
 8001154:	04020074 	movhi	r16,2049
 8001158:	841fe804 	addi	r16,r16,32672
 800115c:	e0bf8817 	ldw	r2,-480(fp)
 8001160:	014005c4 	movi	r5,23
 8001164:	1009883a 	mov	r4,r2
 8001168:	80044340 	call	8004434 <__mulsi3>
 800116c:	8085883a 	add	r2,r16,r2
 8001170:	10800504 	addi	r2,r2,20
 8001174:	10800003 	ldbu	r2,0(r2)
 8001178:	14803fcc 	andi	r18,r2,255
 800117c:	04020074 	movhi	r16,2049
 8001180:	841fe804 	addi	r16,r16,32672
 8001184:	e0bf8817 	ldw	r2,-480(fp)
 8001188:	014005c4 	movi	r5,23
 800118c:	1009883a 	mov	r4,r2
 8001190:	80044340 	call	8004434 <__mulsi3>
 8001194:	8085883a 	add	r2,r16,r2
 8001198:	10800544 	addi	r2,r2,21
 800119c:	10800003 	ldbu	r2,0(r2)
 80011a0:	14c03fcc 	andi	r19,r2,255
 80011a4:	04020074 	movhi	r16,2049
 80011a8:	841fe804 	addi	r16,r16,32672
 80011ac:	e0bf8817 	ldw	r2,-480(fp)
 80011b0:	014005c4 	movi	r5,23
 80011b4:	1009883a 	mov	r4,r2
 80011b8:	80044340 	call	8004434 <__mulsi3>
 80011bc:	8085883a 	add	r2,r16,r2
 80011c0:	10800584 	addi	r2,r2,22
 80011c4:	10800003 	ldbu	r2,0(r2)
 80011c8:	10803fcc 	andi	r2,r2,255
 80011cc:	100f883a 	mov	r7,r2
 80011d0:	980d883a 	mov	r6,r19
 80011d4:	900b883a 	mov	r5,r18
 80011d8:	8809883a 	mov	r4,r17
 80011dc:	800084c0 	call	800084c <setColorPalette>


	//sprintf(score_string, "Score : %d", score);
	//textVGADrawColorText (score_string);

	for (int i = 0; i < 16; i++)
 80011e0:	e0bf8817 	ldw	r2,-480(fp)
 80011e4:	10800044 	addi	r2,r2,1
 80011e8:	e0bf8815 	stw	r2,-480(fp)
 80011ec:	e0bf8817 	ldw	r2,-480(fp)
 80011f0:	10800410 	cmplti	r2,r2,16
 80011f4:	103fd51e 	bne	r2,zero,800114c <__alt_data_end+0xfc00114c>
		{
			setColorPalette (i, colors[i].red, colors[i].green, colors[i].blue);
		}
	initGame();
 80011f8:	8000d980 	call	8000d98 <initGame>
	select = genTet();
 80011fc:	8000e600 	call	8000e60 <genTet>
 8001200:	e0bf8115 	stw	r2,-508(fp)
	curr_tet = pieces[select][0];
 8001204:	e0bf8117 	ldw	r2,-508(fp)
 8001208:	1004913a 	slli	r2,r2,4
 800120c:	e0ff7804 	addi	r3,fp,-544
 8001210:	1885883a 	add	r2,r3,r2
 8001214:	10806804 	addi	r2,r2,416
 8001218:	10800017 	ldw	r2,0(r2)
 800121c:	e0bf7e15 	stw	r2,-520(fp)
	flag = placeNewTet(curr_tet,select+1);
 8001220:	e0bf8117 	ldw	r2,-508(fp)
 8001224:	10800044 	addi	r2,r2,1
 8001228:	100b883a 	mov	r5,r2
 800122c:	e13f7e17 	ldw	r4,-520(fp)
 8001230:	8000bec0 	call	8000bec <placeNewTet>
 8001234:	e0bf8345 	stb	r2,-499(fp)
	while (1) {
		sprintf(score_string, " Score : %d", score);
 8001238:	e0bfa404 	addi	r2,fp,-368
 800123c:	e1bf8517 	ldw	r6,-492(fp)
 8001240:	01420074 	movhi	r5,2049
 8001244:	295ecc04 	addi	r5,r5,31536
 8001248:	1009883a 	mov	r4,r2
 800124c:	80047b80 	call	80047b8 <sprintf>
		textVGADrawColorText (score_string,200);
 8001250:	e0bfa404 	addi	r2,fp,-368
 8001254:	01403204 	movi	r5,200
 8001258:	1009883a 	mov	r4,r2
 800125c:	8000f800 	call	8000f80 <textVGADrawColorText>
		sprintf(level_string, " Level : %d", level);
 8001260:	e0bfb804 	addi	r2,fp,-288
 8001264:	e1bf8617 	ldw	r6,-488(fp)
 8001268:	01420074 	movhi	r5,2049
 800126c:	295ecf04 	addi	r5,r5,31548
 8001270:	1009883a 	mov	r4,r2
 8001274:	80047b80 	call	80047b8 <sprintf>
		textVGADrawColorText (level_string,212);
 8001278:	e0bfb804 	addi	r2,fp,-288
 800127c:	01403504 	movi	r5,212
 8001280:	1009883a 	mov	r4,r2
 8001284:	8000f800 	call	8000f80 <textVGADrawColorText>
		sprintf(line_string, " Lines : %d", lines);
 8001288:	e0bfcc04 	addi	r2,fp,-208
 800128c:	e1bf8417 	ldw	r6,-496(fp)
 8001290:	01420074 	movhi	r5,2049
 8001294:	295ed204 	addi	r5,r5,31560
 8001298:	1009883a 	mov	r4,r2
 800129c:	80047b80 	call	80047b8 <sprintf>
		textVGADrawColorText (line_string,224);
 80012a0:	e0bfcc04 	addi	r2,fp,-208
 80012a4:	01403804 	movi	r5,224
 80012a8:	1009883a 	mov	r4,r2
 80012ac:	8000f800 	call	8000f80 <textVGADrawColorText>
		printSignedHex0(level);
 80012b0:	e0bf8617 	ldw	r2,-488(fp)
 80012b4:	10803fcc 	andi	r2,r2,255
 80012b8:	1080201c 	xori	r2,r2,128
 80012bc:	10bfe004 	addi	r2,r2,-128
 80012c0:	1009883a 	mov	r4,r2
 80012c4:	80004e80 	call	80004e8 <printSignedHex0>
		printSignedHex1(score);
 80012c8:	e0bf8517 	ldw	r2,-492(fp)
 80012cc:	10803fcc 	andi	r2,r2,255
 80012d0:	1080201c 	xori	r2,r2,128
 80012d4:	10bfe004 	addi	r2,r2,-128
 80012d8:	1009883a 	mov	r4,r2
 80012dc:	80006000 	call	8000600 <printSignedHex1>
		curr = returnKeys();
 80012e0:	800076c0 	call	800076c <returnKeys>
 80012e4:	e0bf7915 	stw	r2,-540(fp)
		if(*curr == 0x29){
 80012e8:	e0bf7917 	ldw	r2,-540(fp)
 80012ec:	10800003 	ldbu	r2,0(r2)
 80012f0:	10803fcc 	andi	r2,r2,255
 80012f4:	10800a58 	cmpnei	r2,r2,41
 80012f8:	10000b1e 	bne	r2,zero,8001328 <main+0x310>
			while(*curr != 0x2C){
 80012fc:	00000206 	br	8001308 <main+0x2f0>
				curr = returnKeys();
 8001300:	800076c0 	call	800076c <returnKeys>
 8001304:	e0bf7915 	stw	r2,-540(fp)
		textVGADrawColorText (line_string,224);
		printSignedHex0(level);
		printSignedHex1(score);
		curr = returnKeys();
		if(*curr == 0x29){
			while(*curr != 0x2C){
 8001308:	e0bf7917 	ldw	r2,-540(fp)
 800130c:	10800003 	ldbu	r2,0(r2)
 8001310:	10803fcc 	andi	r2,r2,255
 8001314:	10800b18 	cmpnei	r2,r2,44
 8001318:	103ff91e 	bne	r2,zero,8001300 <__alt_data_end+0xfc001300>
				curr = returnKeys();
			}
			usleep(250000);
 800131c:	01000134 	movhi	r4,4
 8001320:	21342404 	addi	r4,r4,-12144
 8001324:	80158d40 	call	80158d4 <usleep>
		}
		move = true;
 8001328:	00800044 	movi	r2,1
 800132c:	e0bf7805 	stb	r2,-544(fp)
		if(!flag){
 8001330:	e0bf8343 	ldbu	r2,-499(fp)
 8001334:	1080005c 	xori	r2,r2,1
 8001338:	10803fcc 	andi	r2,r2,255
 800133c:	10001b26 	beq	r2,zero,80013ac <main+0x394>
			usleep(500000);
 8001340:	01000234 	movhi	r4,8
 8001344:	21284804 	addi	r4,r4,-24288
 8001348:	80158d40 	call	80158d4 <usleep>
			initGame();
 800134c:	8000d980 	call	8000d98 <initGame>
			select = genTet();
 8001350:	8000e600 	call	8000e60 <genTet>
 8001354:	e0bf8115 	stw	r2,-508(fp)
			score = 0;
 8001358:	e03f8515 	stw	zero,-492(fp)
			level =1;
 800135c:	00800044 	movi	r2,1
 8001360:	e0bf8615 	stw	r2,-488(fp)
			levelThreshold = 0;
 8001364:	e03f8715 	stw	zero,-484(fp)
			curr_tet = pieces[select][0];
 8001368:	e0bf8117 	ldw	r2,-508(fp)
 800136c:	1004913a 	slli	r2,r2,4
 8001370:	e13f7804 	addi	r4,fp,-544
 8001374:	2085883a 	add	r2,r4,r2
 8001378:	10806804 	addi	r2,r2,416
 800137c:	10800017 	ldw	r2,0(r2)
 8001380:	e0bf7e15 	stw	r2,-520(fp)
			flag = placeNewTet(curr_tet,select+1);
 8001384:	e0bf8117 	ldw	r2,-508(fp)
 8001388:	10800044 	addi	r2,r2,1
 800138c:	100b883a 	mov	r5,r2
 8001390:	e13f7e17 	ldw	r4,-520(fp)
 8001394:	8000bec0 	call	8000bec <placeNewTet>
 8001398:	e0bf8345 	stb	r2,-499(fp)
			curr_rot = 0;
 800139c:	e03f7f15 	stw	zero,-516(fp)
			x= 3;
 80013a0:	008000c4 	movi	r2,3
 80013a4:	e0bf7a15 	stw	r2,-536(fp)
			y= 0;
 80013a8:	e03f7b15 	stw	zero,-532(fp)
		}
		//down
		for(int bit = 1 ; bit <= 0x8000 ; bit = bit << 1) {
 80013ac:	00800044 	movi	r2,1
 80013b0:	e0bf8915 	stw	r2,-476(fp)
 80013b4:	00005d06 	br	800152c <main+0x514>
				if((curr_tet & bit) != 0){
 80013b8:	e0ff7e17 	ldw	r3,-520(fp)
 80013bc:	e0bf8917 	ldw	r2,-476(fp)
 80013c0:	1884703a 	and	r2,r3,r2
 80013c4:	10003426 	beq	r2,zero,8001498 <main+0x480>
					if(!isUsed(-currx+x+3,-curry+1+y+3) || last_down[currx]){
 80013c8:	e0ff7a17 	ldw	r3,-536(fp)
 80013cc:	e0bf7c17 	ldw	r2,-528(fp)
 80013d0:	1885c83a 	sub	r2,r3,r2
 80013d4:	110000c4 	addi	r4,r2,3
 80013d8:	00c00044 	movi	r3,1
 80013dc:	e0bf7d17 	ldw	r2,-524(fp)
 80013e0:	1887c83a 	sub	r3,r3,r2
 80013e4:	e0bf7b17 	ldw	r2,-532(fp)
 80013e8:	1885883a 	add	r2,r3,r2
 80013ec:	108000c4 	addi	r2,r2,3
 80013f0:	100b883a 	mov	r5,r2
 80013f4:	80009380 	call	8000938 <isUsed>
 80013f8:	1080005c 	xori	r2,r2,1
 80013fc:	10803fcc 	andi	r2,r2,255
 8001400:	1000061e 	bne	r2,zero,800141c <main+0x404>
 8001404:	e0ffa204 	addi	r3,fp,-376
 8001408:	e0bf7c17 	ldw	r2,-528(fp)
 800140c:	1885883a 	add	r2,r3,r2
 8001410:	10800003 	ldbu	r2,0(r2)
 8001414:	10803fcc 	andi	r2,r2,255
 8001418:	10001d26 	beq	r2,zero,8001490 <main+0x478>
						blocks[block_count] = (-curry+y+3)*10 + -currx + x+3;
 800141c:	e0ff7b17 	ldw	r3,-532(fp)
 8001420:	e0bf7d17 	ldw	r2,-524(fp)
 8001424:	1885c83a 	sub	r2,r3,r2
 8001428:	108000c4 	addi	r2,r2,3
 800142c:	01400284 	movi	r5,10
 8001430:	1009883a 	mov	r4,r2
 8001434:	80044340 	call	8004434 <__mulsi3>
 8001438:	1007883a 	mov	r3,r2
 800143c:	e0bf7c17 	ldw	r2,-528(fp)
 8001440:	1887c83a 	sub	r3,r3,r2
 8001444:	e0bf7a17 	ldw	r2,-536(fp)
 8001448:	1885883a 	add	r2,r3,r2
 800144c:	10c000c4 	addi	r3,r2,3
 8001450:	e0bf8017 	ldw	r2,-512(fp)
 8001454:	1085883a 	add	r2,r2,r2
 8001458:	1085883a 	add	r2,r2,r2
 800145c:	e13f7804 	addi	r4,fp,-544
 8001460:	2085883a 	add	r2,r4,r2
 8001464:	10802204 	addi	r2,r2,136
 8001468:	10c00015 	stw	r3,0(r2)
						block_count++;
 800146c:	e0bf8017 	ldw	r2,-512(fp)
 8001470:	10800044 	addi	r2,r2,1
 8001474:	e0bf8015 	stw	r2,-512(fp)
						now_down[currx] = true;
 8001478:	e0ffa304 	addi	r3,fp,-372
 800147c:	e0bf7c17 	ldw	r2,-528(fp)
 8001480:	1885883a 	add	r2,r3,r2
 8001484:	00c00044 	movi	r3,1
 8001488:	10c00005 	stb	r3,0(r2)
 800148c:	00000606 	br	80014a8 <main+0x490>
						}
					else{
						move = false;
 8001490:	e03f7805 	stb	zero,-544(fp)
						break;
 8001494:	00002806 	br	8001538 <main+0x520>
					}
					}
				else{
					now_down[currx] = false;
 8001498:	e0ffa304 	addi	r3,fp,-372
 800149c:	e0bf7c17 	ldw	r2,-528(fp)
 80014a0:	1885883a 	add	r2,r3,r2
 80014a4:	10000005 	stb	zero,0(r2)
				}
				currx++;
 80014a8:	e0bf7c17 	ldw	r2,-528(fp)
 80014ac:	10800044 	addi	r2,r2,1
 80014b0:	e0bf7c15 	stw	r2,-528(fp)
				if(currx > 3){
 80014b4:	e0bf7c17 	ldw	r2,-528(fp)
 80014b8:	10800110 	cmplti	r2,r2,4
 80014bc:	1000181e 	bne	r2,zero,8001520 <main+0x508>
					currx = 0;
 80014c0:	e03f7c15 	stw	zero,-528(fp)
					curry++;
 80014c4:	e0bf7d17 	ldw	r2,-524(fp)
 80014c8:	10800044 	addi	r2,r2,1
 80014cc:	e0bf7d15 	stw	r2,-524(fp)
					for(int i=0;i<4;i++){
 80014d0:	e03f8a15 	stw	zero,-472(fp)
 80014d4:	00000f06 	br	8001514 <main+0x4fc>
					last_down[i] = now_down[i];
 80014d8:	e0ffa304 	addi	r3,fp,-372
 80014dc:	e0bf8a17 	ldw	r2,-472(fp)
 80014e0:	1885883a 	add	r2,r3,r2
 80014e4:	10c00003 	ldbu	r3,0(r2)
 80014e8:	e13fa204 	addi	r4,fp,-376
 80014ec:	e0bf8a17 	ldw	r2,-472(fp)
 80014f0:	2085883a 	add	r2,r4,r2
 80014f4:	10c00005 	stb	r3,0(r2)
					now_down[i] = false;
 80014f8:	e0ffa304 	addi	r3,fp,-372
 80014fc:	e0bf8a17 	ldw	r2,-472(fp)
 8001500:	1885883a 	add	r2,r3,r2
 8001504:	10000005 	stb	zero,0(r2)
				}
				currx++;
				if(currx > 3){
					currx = 0;
					curry++;
					for(int i=0;i<4;i++){
 8001508:	e0bf8a17 	ldw	r2,-472(fp)
 800150c:	10800044 	addi	r2,r2,1
 8001510:	e0bf8a15 	stw	r2,-472(fp)
 8001514:	e0bf8a17 	ldw	r2,-472(fp)
 8001518:	10800110 	cmplti	r2,r2,4
 800151c:	103fee1e 	bne	r2,zero,80014d8 <__alt_data_end+0xfc0014d8>
			curr_rot = 0;
			x= 3;
			y= 0;
		}
		//down
		for(int bit = 1 ; bit <= 0x8000 ; bit = bit << 1) {
 8001520:	e0bf8917 	ldw	r2,-476(fp)
 8001524:	1085883a 	add	r2,r2,r2
 8001528:	e0bf8915 	stw	r2,-476(fp)
 800152c:	e0bf8917 	ldw	r2,-476(fp)
 8001530:	00e00014 	movui	r3,32768
 8001534:	18bfa00e 	bge	r3,r2,80013b8 <__alt_data_end+0xfc0013b8>
					last_down[i] = now_down[i];
					now_down[i] = false;
					}
				}
			}
			if(move){
 8001538:	e0bf7803 	ldbu	r2,-544(fp)
 800153c:	10004426 	beq	r2,zero,8001650 <main+0x638>
				y++;
 8001540:	e0bf7b17 	ldw	r2,-532(fp)
 8001544:	10800044 	addi	r2,r2,1
 8001548:	e0bf7b15 	stw	r2,-532(fp)
				for(int i =0;i<4;i++){
 800154c:	e03f8b15 	stw	zero,-468(fp)
 8001550:	00003b06 	br	8001640 <main+0x628>
					vga_ctrl->VRAM[blocks[i]+10] = select+1;
 8001554:	d0e00117 	ldw	r3,-32764(gp)
 8001558:	e0bf8b17 	ldw	r2,-468(fp)
 800155c:	1085883a 	add	r2,r2,r2
 8001560:	1085883a 	add	r2,r2,r2
 8001564:	e13f7804 	addi	r4,fp,-544
 8001568:	2085883a 	add	r2,r4,r2
 800156c:	10802204 	addi	r2,r2,136
 8001570:	10800017 	ldw	r2,0(r2)
 8001574:	10800284 	addi	r2,r2,10
 8001578:	e13f8117 	ldw	r4,-508(fp)
 800157c:	21000044 	addi	r4,r4,1
 8001580:	1085883a 	add	r2,r2,r2
 8001584:	1085883a 	add	r2,r2,r2
 8001588:	1885883a 	add	r2,r3,r2
 800158c:	11000015 	stw	r4,0(r2)
					vga_ctrl->VRAM[blocks[i]] = 0b00000000000000000000000000000000;
 8001590:	d0e00117 	ldw	r3,-32764(gp)
 8001594:	e0bf8b17 	ldw	r2,-468(fp)
 8001598:	1085883a 	add	r2,r2,r2
 800159c:	1085883a 	add	r2,r2,r2
 80015a0:	e13f7804 	addi	r4,fp,-544
 80015a4:	2085883a 	add	r2,r4,r2
 80015a8:	10802204 	addi	r2,r2,136
 80015ac:	10800017 	ldw	r2,0(r2)
 80015b0:	1085883a 	add	r2,r2,r2
 80015b4:	1085883a 	add	r2,r2,r2
 80015b8:	1885883a 	add	r2,r3,r2
 80015bc:	10000015 	stw	zero,0(r2)
					occupied[blocks[i]] = 0;
 80015c0:	e0bf8b17 	ldw	r2,-468(fp)
 80015c4:	1085883a 	add	r2,r2,r2
 80015c8:	1085883a 	add	r2,r2,r2
 80015cc:	e0ff7804 	addi	r3,fp,-544
 80015d0:	1885883a 	add	r2,r3,r2
 80015d4:	10802204 	addi	r2,r2,136
 80015d8:	10c00017 	ldw	r3,0(r2)
 80015dc:	008200b4 	movhi	r2,2050
 80015e0:	10ae9f04 	addi	r2,r2,-17796
 80015e4:	18c7883a 	add	r3,r3,r3
 80015e8:	18c7883a 	add	r3,r3,r3
 80015ec:	10c5883a 	add	r2,r2,r3
 80015f0:	10000015 	stw	zero,0(r2)
					occupied[blocks[i]+10] = select+1;
 80015f4:	e0bf8b17 	ldw	r2,-468(fp)
 80015f8:	1085883a 	add	r2,r2,r2
 80015fc:	1085883a 	add	r2,r2,r2
 8001600:	e13f7804 	addi	r4,fp,-544
 8001604:	2085883a 	add	r2,r4,r2
 8001608:	10802204 	addi	r2,r2,136
 800160c:	10800017 	ldw	r2,0(r2)
 8001610:	10c00284 	addi	r3,r2,10
 8001614:	e0bf8117 	ldw	r2,-508(fp)
 8001618:	11000044 	addi	r4,r2,1
 800161c:	008200b4 	movhi	r2,2050
 8001620:	10ae9f04 	addi	r2,r2,-17796
 8001624:	18c7883a 	add	r3,r3,r3
 8001628:	18c7883a 	add	r3,r3,r3
 800162c:	10c5883a 	add	r2,r2,r3
 8001630:	11000015 	stw	r4,0(r2)
					}
				}
			}
			if(move){
				y++;
				for(int i =0;i<4;i++){
 8001634:	e0bf8b17 	ldw	r2,-468(fp)
 8001638:	10800044 	addi	r2,r2,1
 800163c:	e0bf8b15 	stw	r2,-468(fp)
 8001640:	e0bf8b17 	ldw	r2,-468(fp)
 8001644:	10800110 	cmplti	r2,r2,4
 8001648:	103fc21e 	bne	r2,zero,8001554 <__alt_data_end+0xfc001554>
 800164c:	00005606 	br	80017a8 <main+0x790>
					occupied[blocks[i]] = 0;
					occupied[blocks[i]+10] = select+1;
				}
			}
			else{
				currLines = removeRow(y);
 8001650:	e13f7b17 	ldw	r4,-532(fp)
 8001654:	80009c80 	call	80009c8 <removeRow>
 8001658:	e0bf9915 	stw	r2,-412(fp)
				lines += currLines;
 800165c:	e0ff8417 	ldw	r3,-496(fp)
 8001660:	e0bf9917 	ldw	r2,-412(fp)
 8001664:	1885883a 	add	r2,r3,r2
 8001668:	e0bf8415 	stw	r2,-496(fp)

				switch(currLines){
 800166c:	e0bf9917 	ldw	r2,-412(fp)
 8001670:	10800168 	cmpgeui	r2,r2,5
 8001674:	1000281e 	bne	r2,zero,8001718 <main+0x700>
 8001678:	e0bf9917 	ldw	r2,-412(fp)
 800167c:	100690ba 	slli	r3,r2,2
 8001680:	00820034 	movhi	r2,2048
 8001684:	1085a504 	addi	r2,r2,5780
 8001688:	1885883a 	add	r2,r3,r2
 800168c:	10800017 	ldw	r2,0(r2)
 8001690:	1000683a 	jmp	r2
 8001694:	08001714 	ori	zero,at,92
 8001698:	080016a8 	cmpgeui	zero,at,90
 800169c:	080016bc 	xorhi	zero,at,90
 80016a0:	080016dc 	xori	zero,at,91
 80016a4:	080016fc 	xorhi	zero,at,91
				case 0:
					break;
				case 1:
					score += 1*level;
 80016a8:	e0ff8517 	ldw	r3,-492(fp)
 80016ac:	e0bf8617 	ldw	r2,-488(fp)
 80016b0:	1885883a 	add	r2,r3,r2
 80016b4:	e0bf8515 	stw	r2,-492(fp)
					break;
 80016b8:	00001706 	br	8001718 <main+0x700>
				case 2:
					score += 3*level;
 80016bc:	e0ff8617 	ldw	r3,-488(fp)
 80016c0:	1805883a 	mov	r2,r3
 80016c4:	1085883a 	add	r2,r2,r2
 80016c8:	10c5883a 	add	r2,r2,r3
 80016cc:	e0ff8517 	ldw	r3,-492(fp)
 80016d0:	1885883a 	add	r2,r3,r2
 80016d4:	e0bf8515 	stw	r2,-492(fp)
					break;
 80016d8:	00000f06 	br	8001718 <main+0x700>
				case 3:
					score += 5*level;
 80016dc:	01400144 	movi	r5,5
 80016e0:	e13f8617 	ldw	r4,-488(fp)
 80016e4:	80044340 	call	8004434 <__mulsi3>
 80016e8:	1007883a 	mov	r3,r2
 80016ec:	e0bf8517 	ldw	r2,-492(fp)
 80016f0:	10c5883a 	add	r2,r2,r3
 80016f4:	e0bf8515 	stw	r2,-492(fp)
					break;
 80016f8:	00000706 	br	8001718 <main+0x700>
				case 4:
					score += 8*level;
 80016fc:	e0bf8617 	ldw	r2,-488(fp)
 8001700:	100490fa 	slli	r2,r2,3
 8001704:	e0ff8517 	ldw	r3,-492(fp)
 8001708:	1885883a 	add	r2,r3,r2
 800170c:	e0bf8515 	stw	r2,-492(fp)
					break;
 8001710:	00000106 	br	8001718 <main+0x700>
				currLines = removeRow(y);
				lines += currLines;

				switch(currLines){
				case 0:
					break;
 8001714:	0001883a 	nop
					break;
				case 4:
					score += 8*level;
					break;
				}
				if(lines >= level*5  + levelThreshold){
 8001718:	01400144 	movi	r5,5
 800171c:	e13f8617 	ldw	r4,-488(fp)
 8001720:	80044340 	call	8004434 <__mulsi3>
 8001724:	1007883a 	mov	r3,r2
 8001728:	e0bf8717 	ldw	r2,-484(fp)
 800172c:	1885883a 	add	r2,r3,r2
 8001730:	e0ff8417 	ldw	r3,-496(fp)
 8001734:	18800a16 	blt	r3,r2,8001760 <main+0x748>
					levelThreshold += level*5;
 8001738:	01400144 	movi	r5,5
 800173c:	e13f8617 	ldw	r4,-488(fp)
 8001740:	80044340 	call	8004434 <__mulsi3>
 8001744:	1007883a 	mov	r3,r2
 8001748:	e0bf8717 	ldw	r2,-484(fp)
 800174c:	10c5883a 	add	r2,r2,r3
 8001750:	e0bf8715 	stw	r2,-484(fp)
					level++;
 8001754:	e0bf8617 	ldw	r2,-488(fp)
 8001758:	10800044 	addi	r2,r2,1
 800175c:	e0bf8615 	stw	r2,-488(fp)
				}
				x= 3;
 8001760:	008000c4 	movi	r2,3
 8001764:	e0bf7a15 	stw	r2,-536(fp)
				y =0;
 8001768:	e03f7b15 	stw	zero,-532(fp)
				select = genTet();
 800176c:	8000e600 	call	8000e60 <genTet>
 8001770:	e0bf8115 	stw	r2,-508(fp)
				curr_tet = pieces[select][0];
 8001774:	e0bf8117 	ldw	r2,-508(fp)
 8001778:	1004913a 	slli	r2,r2,4
 800177c:	e0ff7804 	addi	r3,fp,-544
 8001780:	1885883a 	add	r2,r3,r2
 8001784:	10806804 	addi	r2,r2,416
 8001788:	10800017 	ldw	r2,0(r2)
 800178c:	e0bf7e15 	stw	r2,-520(fp)
				flag = placeNewTet(curr_tet,select+1);
 8001790:	e0bf8117 	ldw	r2,-508(fp)
 8001794:	10800044 	addi	r2,r2,1
 8001798:	100b883a 	mov	r5,r2
 800179c:	e13f7e17 	ldw	r4,-520(fp)
 80017a0:	8000bec0 	call	8000bec <placeNewTet>
 80017a4:	e0bf8345 	stb	r2,-499(fp)
			}
			currx = 0;
 80017a8:	e03f7c15 	stw	zero,-528(fp)
			curry = 0;
 80017ac:	e03f7d15 	stw	zero,-524(fp)
			block_count = 0;
 80017b0:	e03f8015 	stw	zero,-512(fp)
			move = true;
 80017b4:	00800044 	movi	r2,1
 80017b8:	e0bf7805 	stb	r2,-544(fp)
			for(int i=0;i<4;i++){
 80017bc:	e03f8c15 	stw	zero,-464(fp)
 80017c0:	00000706 	br	80017e0 <main+0x7c8>
				last_down[i] = false;
 80017c4:	e0ffa204 	addi	r3,fp,-376
 80017c8:	e0bf8c17 	ldw	r2,-464(fp)
 80017cc:	1885883a 	add	r2,r3,r2
 80017d0:	10000005 	stb	zero,0(r2)
			}
			currx = 0;
			curry = 0;
			block_count = 0;
			move = true;
			for(int i=0;i<4;i++){
 80017d4:	e0bf8c17 	ldw	r2,-464(fp)
 80017d8:	10800044 	addi	r2,r2,1
 80017dc:	e0bf8c15 	stw	r2,-464(fp)
 80017e0:	e0bf8c17 	ldw	r2,-464(fp)
 80017e4:	10800110 	cmplti	r2,r2,4
 80017e8:	103ff61e 	bne	r2,zero,80017c4 <__alt_data_end+0xfc0017c4>
				last_down[i] = false;
			}
			usleep(17000-1000*level);
 80017ec:	017f0604 	movi	r5,-1000
 80017f0:	e13f8617 	ldw	r4,-488(fp)
 80017f4:	80044340 	call	8004434 <__mulsi3>
 80017f8:	10909a04 	addi	r2,r2,17000
 80017fc:	1009883a 	mov	r4,r2
 8001800:	80158d40 	call	80158d4 <usleep>


		switch(*curr){
 8001804:	e0bf7917 	ldw	r2,-540(fp)
 8001808:	10800003 	ldbu	r2,0(r2)
 800180c:	10803fcc 	andi	r2,r2,255
 8001810:	10c001e0 	cmpeqi	r3,r2,7
 8001814:	18015c1e 	bne	r3,zero,8001d88 <main+0xd70>
 8001818:	10c00208 	cmpgei	r3,r2,8
 800181c:	1800031e 	bne	r3,zero,800182c <main+0x814>
 8001820:	10800120 	cmpeqi	r2,r2,4
 8001824:	1000ce1e 	bne	r2,zero,8001b60 <main+0xb48>
 8001828:	0002a206 	br	80022b4 <main+0x129c>
 800182c:	10c005a0 	cmpeqi	r3,r2,22
 8001830:	1801e61e 	bne	r3,zero,8001fcc <main+0xfb4>
 8001834:	108006a0 	cmpeqi	r2,r2,26
 8001838:	10029e26 	beq	r2,zero,80022b4 <main+0x129c>
		//rotate
		case 0x1A:
			new_rot = (curr_rot+1)%4;
 800183c:	e0bf7f17 	ldw	r2,-516(fp)
 8001840:	10c00044 	addi	r3,r2,1
 8001844:	00a00034 	movhi	r2,32768
 8001848:	108000c4 	addi	r2,r2,3
 800184c:	1884703a 	and	r2,r3,r2
 8001850:	1000040e 	bge	r2,zero,8001864 <main+0x84c>
 8001854:	10bfffc4 	addi	r2,r2,-1
 8001858:	00ffff04 	movi	r3,-4
 800185c:	10c4b03a 	or	r2,r2,r3
 8001860:	10800044 	addi	r2,r2,1
 8001864:	e0bf9715 	stw	r2,-420(fp)
			for(int bit = 0x8000; bit >0;bit = bit >> 1){
 8001868:	00a00014 	movui	r2,32768
 800186c:	e0bf8d15 	stw	r2,-460(fp)
 8001870:	00005b06 	br	80019e0 <main+0x9c8>

				if((pieces[select][new_rot] & bit) != 0){
 8001874:	e0bf8117 	ldw	r2,-508(fp)
 8001878:	1085883a 	add	r2,r2,r2
 800187c:	1087883a 	add	r3,r2,r2
 8001880:	e0bf9717 	ldw	r2,-420(fp)
 8001884:	1885883a 	add	r2,r3,r2
 8001888:	1085883a 	add	r2,r2,r2
 800188c:	1085883a 	add	r2,r2,r2
 8001890:	e13f7804 	addi	r4,fp,-544
 8001894:	2085883a 	add	r2,r4,r2
 8001898:	10806804 	addi	r2,r2,416
 800189c:	10c00017 	ldw	r3,0(r2)
 80018a0:	e0bf8d17 	ldw	r2,-460(fp)
 80018a4:	1884703a 	and	r2,r3,r2
 80018a8:	10002726 	beq	r2,zero,8001948 <main+0x930>

					if(!isUsed(currx + x,curry+y) || (curr_tet & bit) != 0){
 80018ac:	e0ff7c17 	ldw	r3,-528(fp)
 80018b0:	e0bf7a17 	ldw	r2,-536(fp)
 80018b4:	1889883a 	add	r4,r3,r2
 80018b8:	e0ff7d17 	ldw	r3,-524(fp)
 80018bc:	e0bf7b17 	ldw	r2,-532(fp)
 80018c0:	1885883a 	add	r2,r3,r2
 80018c4:	100b883a 	mov	r5,r2
 80018c8:	80009380 	call	8000938 <isUsed>
 80018cc:	1080005c 	xori	r2,r2,1
 80018d0:	10803fcc 	andi	r2,r2,255
 80018d4:	1000041e 	bne	r2,zero,80018e8 <main+0x8d0>
 80018d8:	e0ff7e17 	ldw	r3,-520(fp)
 80018dc:	e0bf8d17 	ldw	r2,-460(fp)
 80018e0:	1884703a 	and	r2,r3,r2
 80018e4:	10001626 	beq	r2,zero,8001940 <main+0x928>
						blocks[block_count] = (curry+y)*10 + currx + x;
 80018e8:	e0ff7d17 	ldw	r3,-524(fp)
 80018ec:	e0bf7b17 	ldw	r2,-532(fp)
 80018f0:	1885883a 	add	r2,r3,r2
 80018f4:	01400284 	movi	r5,10
 80018f8:	1009883a 	mov	r4,r2
 80018fc:	80044340 	call	8004434 <__mulsi3>
 8001900:	1007883a 	mov	r3,r2
 8001904:	e0bf7c17 	ldw	r2,-528(fp)
 8001908:	1887883a 	add	r3,r3,r2
 800190c:	e0bf7a17 	ldw	r2,-536(fp)
 8001910:	1887883a 	add	r3,r3,r2
 8001914:	e0bf8017 	ldw	r2,-512(fp)
 8001918:	1085883a 	add	r2,r2,r2
 800191c:	1085883a 	add	r2,r2,r2
 8001920:	e13f7804 	addi	r4,fp,-544
 8001924:	2085883a 	add	r2,r4,r2
 8001928:	10802204 	addi	r2,r2,136
 800192c:	10c00015 	stw	r3,0(r2)
						block_count++;
 8001930:	e0bf8017 	ldw	r2,-512(fp)
 8001934:	10800044 	addi	r2,r2,1
 8001938:	e0bf8015 	stw	r2,-512(fp)
 800193c:	00001b06 	br	80019ac <main+0x994>
					}
					else{
						move = false;
 8001940:	e03f7805 	stb	zero,-544(fp)
						break;
 8001944:	00002806 	br	80019e8 <main+0x9d0>
					}
				}
				else if((curr_tet & bit) != 0){
 8001948:	e0ff7e17 	ldw	r3,-520(fp)
 800194c:	e0bf8d17 	ldw	r2,-460(fp)
 8001950:	1884703a 	and	r2,r3,r2
 8001954:	10001526 	beq	r2,zero,80019ac <main+0x994>
					rot_blocks[rot_count] = (curry+y)*10 + currx + x;
 8001958:	e0ff7d17 	ldw	r3,-524(fp)
 800195c:	e0bf7b17 	ldw	r2,-532(fp)
 8001960:	1885883a 	add	r2,r3,r2
 8001964:	01400284 	movi	r5,10
 8001968:	1009883a 	mov	r4,r2
 800196c:	80044340 	call	8004434 <__mulsi3>
 8001970:	1007883a 	mov	r3,r2
 8001974:	e0bf7c17 	ldw	r2,-528(fp)
 8001978:	1887883a 	add	r3,r3,r2
 800197c:	e0bf7a17 	ldw	r2,-536(fp)
 8001980:	1887883a 	add	r3,r3,r2
 8001984:	e0bf8217 	ldw	r2,-504(fp)
 8001988:	1085883a 	add	r2,r2,r2
 800198c:	1085883a 	add	r2,r2,r2
 8001990:	e13f7804 	addi	r4,fp,-544
 8001994:	2085883a 	add	r2,r4,r2
 8001998:	10802604 	addi	r2,r2,152
 800199c:	10c00015 	stw	r3,0(r2)
					rot_count++;
 80019a0:	e0bf8217 	ldw	r2,-504(fp)
 80019a4:	10800044 	addi	r2,r2,1
 80019a8:	e0bf8215 	stw	r2,-504(fp)
				}

				currx++;
 80019ac:	e0bf7c17 	ldw	r2,-528(fp)
 80019b0:	10800044 	addi	r2,r2,1
 80019b4:	e0bf7c15 	stw	r2,-528(fp)
				if(currx > 3){
 80019b8:	e0bf7c17 	ldw	r2,-528(fp)
 80019bc:	10800110 	cmplti	r2,r2,4
 80019c0:	1000041e 	bne	r2,zero,80019d4 <main+0x9bc>
					currx = 0;
 80019c4:	e03f7c15 	stw	zero,-528(fp)
					curry++;
 80019c8:	e0bf7d17 	ldw	r2,-524(fp)
 80019cc:	10800044 	addi	r2,r2,1
 80019d0:	e0bf7d15 	stw	r2,-524(fp)

		switch(*curr){
		//rotate
		case 0x1A:
			new_rot = (curr_rot+1)%4;
			for(int bit = 0x8000; bit >0;bit = bit >> 1){
 80019d4:	e0bf8d17 	ldw	r2,-460(fp)
 80019d8:	1005d07a 	srai	r2,r2,1
 80019dc:	e0bf8d15 	stw	r2,-460(fp)
 80019e0:	e0bf8d17 	ldw	r2,-460(fp)
 80019e4:	00bfa316 	blt	zero,r2,8001874 <__alt_data_end+0xfc001874>
				if(currx > 3){
					currx = 0;
					curry++;
				}
			}
			if(move){
 80019e8:	e0bf7803 	ldbu	r2,-544(fp)
 80019ec:	10005526 	beq	r2,zero,8001b44 <main+0xb2c>
				curr_tet = pieces[select][new_rot];
 80019f0:	e0bf8117 	ldw	r2,-508(fp)
 80019f4:	1085883a 	add	r2,r2,r2
 80019f8:	1087883a 	add	r3,r2,r2
 80019fc:	e0bf9717 	ldw	r2,-420(fp)
 8001a00:	1885883a 	add	r2,r3,r2
 8001a04:	1085883a 	add	r2,r2,r2
 8001a08:	1085883a 	add	r2,r2,r2
 8001a0c:	e0ff7804 	addi	r3,fp,-544
 8001a10:	1885883a 	add	r2,r3,r2
 8001a14:	10806804 	addi	r2,r2,416
 8001a18:	10800017 	ldw	r2,0(r2)
 8001a1c:	e0bf7e15 	stw	r2,-520(fp)
				curr_rot = (curr_rot +1)%4;
 8001a20:	e0bf7f17 	ldw	r2,-516(fp)
 8001a24:	10c00044 	addi	r3,r2,1
 8001a28:	00a00034 	movhi	r2,32768
 8001a2c:	108000c4 	addi	r2,r2,3
 8001a30:	1884703a 	and	r2,r3,r2
 8001a34:	1000040e 	bge	r2,zero,8001a48 <main+0xa30>
 8001a38:	10bfffc4 	addi	r2,r2,-1
 8001a3c:	00ffff04 	movi	r3,-4
 8001a40:	10c4b03a 	or	r2,r2,r3
 8001a44:	10800044 	addi	r2,r2,1
 8001a48:	e0bf7f15 	stw	r2,-516(fp)
				for(int i =0;i<4;i++){
 8001a4c:	e03f8e15 	stw	zero,-456(fp)
 8001a50:	00003906 	br	8001b38 <main+0xb20>
				vga_ctrl->VRAM[rot_blocks[i]] = 0b0000000000000000000000000000000;
 8001a54:	d0e00117 	ldw	r3,-32764(gp)
 8001a58:	e0bf8e17 	ldw	r2,-456(fp)
 8001a5c:	1085883a 	add	r2,r2,r2
 8001a60:	1085883a 	add	r2,r2,r2
 8001a64:	e13f7804 	addi	r4,fp,-544
 8001a68:	2085883a 	add	r2,r4,r2
 8001a6c:	10802604 	addi	r2,r2,152
 8001a70:	10800017 	ldw	r2,0(r2)
 8001a74:	1085883a 	add	r2,r2,r2
 8001a78:	1085883a 	add	r2,r2,r2
 8001a7c:	1885883a 	add	r2,r3,r2
 8001a80:	10000015 	stw	zero,0(r2)
				vga_ctrl->VRAM[blocks[i]] = select+1;
 8001a84:	d0e00117 	ldw	r3,-32764(gp)
 8001a88:	e0bf8e17 	ldw	r2,-456(fp)
 8001a8c:	1085883a 	add	r2,r2,r2
 8001a90:	1085883a 	add	r2,r2,r2
 8001a94:	e13f7804 	addi	r4,fp,-544
 8001a98:	2085883a 	add	r2,r4,r2
 8001a9c:	10802204 	addi	r2,r2,136
 8001aa0:	10800017 	ldw	r2,0(r2)
 8001aa4:	e13f8117 	ldw	r4,-508(fp)
 8001aa8:	21000044 	addi	r4,r4,1
 8001aac:	1085883a 	add	r2,r2,r2
 8001ab0:	1085883a 	add	r2,r2,r2
 8001ab4:	1885883a 	add	r2,r3,r2
 8001ab8:	11000015 	stw	r4,0(r2)
				occupied[rot_blocks[i]] = 0;
 8001abc:	e0bf8e17 	ldw	r2,-456(fp)
 8001ac0:	1085883a 	add	r2,r2,r2
 8001ac4:	1085883a 	add	r2,r2,r2
 8001ac8:	e0ff7804 	addi	r3,fp,-544
 8001acc:	1885883a 	add	r2,r3,r2
 8001ad0:	10802604 	addi	r2,r2,152
 8001ad4:	10c00017 	ldw	r3,0(r2)
 8001ad8:	008200b4 	movhi	r2,2050
 8001adc:	10ae9f04 	addi	r2,r2,-17796
 8001ae0:	18c7883a 	add	r3,r3,r3
 8001ae4:	18c7883a 	add	r3,r3,r3
 8001ae8:	10c5883a 	add	r2,r2,r3
 8001aec:	10000015 	stw	zero,0(r2)
				occupied[blocks[i]] = select +1;
 8001af0:	e0bf8e17 	ldw	r2,-456(fp)
 8001af4:	1085883a 	add	r2,r2,r2
 8001af8:	1085883a 	add	r2,r2,r2
 8001afc:	e13f7804 	addi	r4,fp,-544
 8001b00:	2085883a 	add	r2,r4,r2
 8001b04:	10802204 	addi	r2,r2,136
 8001b08:	10c00017 	ldw	r3,0(r2)
 8001b0c:	e0bf8117 	ldw	r2,-508(fp)
 8001b10:	11000044 	addi	r4,r2,1
 8001b14:	008200b4 	movhi	r2,2050
 8001b18:	10ae9f04 	addi	r2,r2,-17796
 8001b1c:	18c7883a 	add	r3,r3,r3
 8001b20:	18c7883a 	add	r3,r3,r3
 8001b24:	10c5883a 	add	r2,r2,r3
 8001b28:	11000015 	stw	r4,0(r2)
				}
			}
			if(move){
				curr_tet = pieces[select][new_rot];
				curr_rot = (curr_rot +1)%4;
				for(int i =0;i<4;i++){
 8001b2c:	e0bf8e17 	ldw	r2,-456(fp)
 8001b30:	10800044 	addi	r2,r2,1
 8001b34:	e0bf8e15 	stw	r2,-456(fp)
 8001b38:	e0bf8e17 	ldw	r2,-456(fp)
 8001b3c:	10800110 	cmplti	r2,r2,4
 8001b40:	103fc41e 	bne	r2,zero,8001a54 <__alt_data_end+0xfc001a54>
				occupied[blocks[i]] = select +1;

				}
			}

		currx = 0;
 8001b44:	e03f7c15 	stw	zero,-528(fp)
		curry = 0;
 8001b48:	e03f7d15 	stw	zero,-524(fp)
		move = true;
 8001b4c:	00800044 	movi	r2,1
 8001b50:	e0bf7805 	stb	r2,-544(fp)
		block_count = 0;
 8001b54:	e03f8015 	stw	zero,-512(fp)
		rot_count = 0;
 8001b58:	e03f8215 	stw	zero,-504(fp)

		break;
 8001b5c:	0001d506 	br	80022b4 <main+0x129c>
		//left
		case 0x04:
			for(int bit = 0x8000 ; bit > 0 ; bit = bit >> 1) {
 8001b60:	00a00014 	movui	r2,32768
 8001b64:	e0bf8f15 	stw	r2,-452(fp)
 8001b68:	00003a06 	br	8001c54 <main+0xc3c>
				if((curr_tet & bit) != 0){
 8001b6c:	e0ff7e17 	ldw	r3,-520(fp)
 8001b70:	e0bf8f17 	ldw	r2,-452(fp)
 8001b74:	1884703a 	and	r2,r3,r2
 8001b78:	10002826 	beq	r2,zero,8001c1c <main+0xc04>
					if(!isUsed(currx-1+x,curry+y) || last){
 8001b7c:	e0bf7c17 	ldw	r2,-528(fp)
 8001b80:	10ffffc4 	addi	r3,r2,-1
 8001b84:	e0bf7a17 	ldw	r2,-536(fp)
 8001b88:	1889883a 	add	r4,r3,r2
 8001b8c:	e0ff7d17 	ldw	r3,-524(fp)
 8001b90:	e0bf7b17 	ldw	r2,-532(fp)
 8001b94:	1885883a 	add	r2,r3,r2
 8001b98:	100b883a 	mov	r5,r2
 8001b9c:	80009380 	call	8000938 <isUsed>
 8001ba0:	1080005c 	xori	r2,r2,1
 8001ba4:	10803fcc 	andi	r2,r2,255
 8001ba8:	1000021e 	bne	r2,zero,8001bb4 <main+0xb9c>
 8001bac:	e0bf8303 	ldbu	r2,-500(fp)
 8001bb0:	10001826 	beq	r2,zero,8001c14 <main+0xbfc>
						blocks[block_count] = (curry+y)*10 + currx + x;
 8001bb4:	e0ff7d17 	ldw	r3,-524(fp)
 8001bb8:	e0bf7b17 	ldw	r2,-532(fp)
 8001bbc:	1885883a 	add	r2,r3,r2
 8001bc0:	01400284 	movi	r5,10
 8001bc4:	1009883a 	mov	r4,r2
 8001bc8:	80044340 	call	8004434 <__mulsi3>
 8001bcc:	1007883a 	mov	r3,r2
 8001bd0:	e0bf7c17 	ldw	r2,-528(fp)
 8001bd4:	1887883a 	add	r3,r3,r2
 8001bd8:	e0bf7a17 	ldw	r2,-536(fp)
 8001bdc:	1887883a 	add	r3,r3,r2
 8001be0:	e0bf8017 	ldw	r2,-512(fp)
 8001be4:	1085883a 	add	r2,r2,r2
 8001be8:	1085883a 	add	r2,r2,r2
 8001bec:	e13f7804 	addi	r4,fp,-544
 8001bf0:	2085883a 	add	r2,r4,r2
 8001bf4:	10802204 	addi	r2,r2,136
 8001bf8:	10c00015 	stw	r3,0(r2)
						block_count++;
 8001bfc:	e0bf8017 	ldw	r2,-512(fp)
 8001c00:	10800044 	addi	r2,r2,1
 8001c04:	e0bf8015 	stw	r2,-512(fp)
						last = true;
 8001c08:	00800044 	movi	r2,1
 8001c0c:	e0bf8305 	stb	r2,-500(fp)
 8001c10:	00000306 	br	8001c20 <main+0xc08>
					}
					else{
						move = false;
 8001c14:	e03f7805 	stb	zero,-544(fp)
						break;
 8001c18:	00001006 	br	8001c5c <main+0xc44>
					}
				}
				else{
					last = false;
 8001c1c:	e03f8305 	stb	zero,-500(fp)
				}
				currx++;
 8001c20:	e0bf7c17 	ldw	r2,-528(fp)
 8001c24:	10800044 	addi	r2,r2,1
 8001c28:	e0bf7c15 	stw	r2,-528(fp)
				if(currx > 3){
 8001c2c:	e0bf7c17 	ldw	r2,-528(fp)
 8001c30:	10800110 	cmplti	r2,r2,4
 8001c34:	1000041e 	bne	r2,zero,8001c48 <main+0xc30>
				currx = 0;
 8001c38:	e03f7c15 	stw	zero,-528(fp)
				curry++;
 8001c3c:	e0bf7d17 	ldw	r2,-524(fp)
 8001c40:	10800044 	addi	r2,r2,1
 8001c44:	e0bf7d15 	stw	r2,-524(fp)
		rot_count = 0;

		break;
		//left
		case 0x04:
			for(int bit = 0x8000 ; bit > 0 ; bit = bit >> 1) {
 8001c48:	e0bf8f17 	ldw	r2,-452(fp)
 8001c4c:	1005d07a 	srai	r2,r2,1
 8001c50:	e0bf8f15 	stw	r2,-452(fp)
 8001c54:	e0bf8f17 	ldw	r2,-452(fp)
 8001c58:	00bfc416 	blt	zero,r2,8001b6c <__alt_data_end+0xfc001b6c>
				if(currx > 3){
				currx = 0;
				curry++;
				}
			}
			if(move){
 8001c5c:	e0bf7803 	ldbu	r2,-544(fp)
 8001c60:	10004326 	beq	r2,zero,8001d70 <main+0xd58>
				x -=1;
 8001c64:	e0bf7a17 	ldw	r2,-536(fp)
 8001c68:	10bfffc4 	addi	r2,r2,-1
 8001c6c:	e0bf7a15 	stw	r2,-536(fp)
				for(int i =0;i<4;i++){
 8001c70:	e03f9015 	stw	zero,-448(fp)
 8001c74:	00003b06 	br	8001d64 <main+0xd4c>

					vga_ctrl->VRAM[blocks[i]-1] = select+1;
 8001c78:	d0e00117 	ldw	r3,-32764(gp)
 8001c7c:	e0bf9017 	ldw	r2,-448(fp)
 8001c80:	1085883a 	add	r2,r2,r2
 8001c84:	1085883a 	add	r2,r2,r2
 8001c88:	e13f7804 	addi	r4,fp,-544
 8001c8c:	2085883a 	add	r2,r4,r2
 8001c90:	10802204 	addi	r2,r2,136
 8001c94:	10800017 	ldw	r2,0(r2)
 8001c98:	10bfffc4 	addi	r2,r2,-1
 8001c9c:	e13f8117 	ldw	r4,-508(fp)
 8001ca0:	21000044 	addi	r4,r4,1
 8001ca4:	1085883a 	add	r2,r2,r2
 8001ca8:	1085883a 	add	r2,r2,r2
 8001cac:	1885883a 	add	r2,r3,r2
 8001cb0:	11000015 	stw	r4,0(r2)
					vga_ctrl->VRAM[blocks[i]] = 0b00000000000000000000000000000000;
 8001cb4:	d0e00117 	ldw	r3,-32764(gp)
 8001cb8:	e0bf9017 	ldw	r2,-448(fp)
 8001cbc:	1085883a 	add	r2,r2,r2
 8001cc0:	1085883a 	add	r2,r2,r2
 8001cc4:	e13f7804 	addi	r4,fp,-544
 8001cc8:	2085883a 	add	r2,r4,r2
 8001ccc:	10802204 	addi	r2,r2,136
 8001cd0:	10800017 	ldw	r2,0(r2)
 8001cd4:	1085883a 	add	r2,r2,r2
 8001cd8:	1085883a 	add	r2,r2,r2
 8001cdc:	1885883a 	add	r2,r3,r2
 8001ce0:	10000015 	stw	zero,0(r2)
					occupied[blocks[i]] = 0;
 8001ce4:	e0bf9017 	ldw	r2,-448(fp)
 8001ce8:	1085883a 	add	r2,r2,r2
 8001cec:	1085883a 	add	r2,r2,r2
 8001cf0:	e0ff7804 	addi	r3,fp,-544
 8001cf4:	1885883a 	add	r2,r3,r2
 8001cf8:	10802204 	addi	r2,r2,136
 8001cfc:	10c00017 	ldw	r3,0(r2)
 8001d00:	008200b4 	movhi	r2,2050
 8001d04:	10ae9f04 	addi	r2,r2,-17796
 8001d08:	18c7883a 	add	r3,r3,r3
 8001d0c:	18c7883a 	add	r3,r3,r3
 8001d10:	10c5883a 	add	r2,r2,r3
 8001d14:	10000015 	stw	zero,0(r2)
					occupied[blocks[i]-1] = select+1;
 8001d18:	e0bf9017 	ldw	r2,-448(fp)
 8001d1c:	1085883a 	add	r2,r2,r2
 8001d20:	1085883a 	add	r2,r2,r2
 8001d24:	e13f7804 	addi	r4,fp,-544
 8001d28:	2085883a 	add	r2,r4,r2
 8001d2c:	10802204 	addi	r2,r2,136
 8001d30:	10800017 	ldw	r2,0(r2)
 8001d34:	10ffffc4 	addi	r3,r2,-1
 8001d38:	e0bf8117 	ldw	r2,-508(fp)
 8001d3c:	11000044 	addi	r4,r2,1
 8001d40:	008200b4 	movhi	r2,2050
 8001d44:	10ae9f04 	addi	r2,r2,-17796
 8001d48:	18c7883a 	add	r3,r3,r3
 8001d4c:	18c7883a 	add	r3,r3,r3
 8001d50:	10c5883a 	add	r2,r2,r3
 8001d54:	11000015 	stw	r4,0(r2)
				curry++;
				}
			}
			if(move){
				x -=1;
				for(int i =0;i<4;i++){
 8001d58:	e0bf9017 	ldw	r2,-448(fp)
 8001d5c:	10800044 	addi	r2,r2,1
 8001d60:	e0bf9015 	stw	r2,-448(fp)
 8001d64:	e0bf9017 	ldw	r2,-448(fp)
 8001d68:	10800110 	cmplti	r2,r2,4
 8001d6c:	103fc21e 	bne	r2,zero,8001c78 <__alt_data_end+0xfc001c78>
					occupied[blocks[i]] = 0;
					occupied[blocks[i]-1] = select+1;

			}
			}
			currx = 0;
 8001d70:	e03f7c15 	stw	zero,-528(fp)
			curry = 0;
 8001d74:	e03f7d15 	stw	zero,-524(fp)
			block_count = 0;
 8001d78:	e03f8015 	stw	zero,-512(fp)
			move = true;
 8001d7c:	00800044 	movi	r2,1
 8001d80:	e0bf7805 	stb	r2,-544(fp)
			break;
 8001d84:	00014b06 	br	80022b4 <main+0x129c>

		//right
		case 0x07:
			for(int bit = 1 ; bit <= 0x8000 ; bit = bit << 1) {
 8001d88:	00800044 	movi	r2,1
 8001d8c:	e0bf9115 	stw	r2,-444(fp)
 8001d90:	00004006 	br	8001e94 <main+0xe7c>
					if((curr_tet & bit) != 0){
 8001d94:	e0ff7e17 	ldw	r3,-520(fp)
 8001d98:	e0bf9117 	ldw	r2,-444(fp)
 8001d9c:	1884703a 	and	r2,r3,r2
 8001da0:	10002d26 	beq	r2,zero,8001e58 <main+0xe40>
						if(!isUsed(-currx+1+x+3,-curry+y+3) || last){
 8001da4:	00c00044 	movi	r3,1
 8001da8:	e0bf7c17 	ldw	r2,-528(fp)
 8001dac:	1887c83a 	sub	r3,r3,r2
 8001db0:	e0bf7a17 	ldw	r2,-536(fp)
 8001db4:	1885883a 	add	r2,r3,r2
 8001db8:	110000c4 	addi	r4,r2,3
 8001dbc:	e0ff7b17 	ldw	r3,-532(fp)
 8001dc0:	e0bf7d17 	ldw	r2,-524(fp)
 8001dc4:	1885c83a 	sub	r2,r3,r2
 8001dc8:	108000c4 	addi	r2,r2,3
 8001dcc:	100b883a 	mov	r5,r2
 8001dd0:	80009380 	call	8000938 <isUsed>
 8001dd4:	1080005c 	xori	r2,r2,1
 8001dd8:	10803fcc 	andi	r2,r2,255
 8001ddc:	1000021e 	bne	r2,zero,8001de8 <main+0xdd0>
 8001de0:	e0bf8303 	ldbu	r2,-500(fp)
 8001de4:	10001a26 	beq	r2,zero,8001e50 <main+0xe38>

							blocks[block_count] = (-curry+y+3)*10 + -currx + x+3;
 8001de8:	e0ff7b17 	ldw	r3,-532(fp)
 8001dec:	e0bf7d17 	ldw	r2,-524(fp)
 8001df0:	1885c83a 	sub	r2,r3,r2
 8001df4:	108000c4 	addi	r2,r2,3
 8001df8:	01400284 	movi	r5,10
 8001dfc:	1009883a 	mov	r4,r2
 8001e00:	80044340 	call	8004434 <__mulsi3>
 8001e04:	1007883a 	mov	r3,r2
 8001e08:	e0bf7c17 	ldw	r2,-528(fp)
 8001e0c:	1887c83a 	sub	r3,r3,r2
 8001e10:	e0bf7a17 	ldw	r2,-536(fp)
 8001e14:	1885883a 	add	r2,r3,r2
 8001e18:	10c000c4 	addi	r3,r2,3
 8001e1c:	e0bf8017 	ldw	r2,-512(fp)
 8001e20:	1085883a 	add	r2,r2,r2
 8001e24:	1085883a 	add	r2,r2,r2
 8001e28:	e13f7804 	addi	r4,fp,-544
 8001e2c:	2085883a 	add	r2,r4,r2
 8001e30:	10802204 	addi	r2,r2,136
 8001e34:	10c00015 	stw	r3,0(r2)
							block_count++;
 8001e38:	e0bf8017 	ldw	r2,-512(fp)
 8001e3c:	10800044 	addi	r2,r2,1
 8001e40:	e0bf8015 	stw	r2,-512(fp)
							last = true;
 8001e44:	00800044 	movi	r2,1
 8001e48:	e0bf8305 	stb	r2,-500(fp)
 8001e4c:	00000306 	br	8001e5c <main+0xe44>
						}
						else{
							move = false;
 8001e50:	e03f7805 	stb	zero,-544(fp)
							break;
 8001e54:	00001206 	br	8001ea0 <main+0xe88>
						}
					}
					else{
						last = false;
 8001e58:	e03f8305 	stb	zero,-500(fp)
					}
					currx++;
 8001e5c:	e0bf7c17 	ldw	r2,-528(fp)
 8001e60:	10800044 	addi	r2,r2,1
 8001e64:	e0bf7c15 	stw	r2,-528(fp)
					if(currx > 3){
 8001e68:	e0bf7c17 	ldw	r2,-528(fp)
 8001e6c:	10800110 	cmplti	r2,r2,4
 8001e70:	1000051e 	bne	r2,zero,8001e88 <main+0xe70>
					currx = 0;
 8001e74:	e03f7c15 	stw	zero,-528(fp)
					curry++;
 8001e78:	e0bf7d17 	ldw	r2,-524(fp)
 8001e7c:	10800044 	addi	r2,r2,1
 8001e80:	e0bf7d15 	stw	r2,-524(fp)
					last = false;
 8001e84:	e03f8305 	stb	zero,-500(fp)
			move = true;
			break;

		//right
		case 0x07:
			for(int bit = 1 ; bit <= 0x8000 ; bit = bit << 1) {
 8001e88:	e0bf9117 	ldw	r2,-444(fp)
 8001e8c:	1085883a 	add	r2,r2,r2
 8001e90:	e0bf9115 	stw	r2,-444(fp)
 8001e94:	e0bf9117 	ldw	r2,-444(fp)
 8001e98:	00e00014 	movui	r3,32768
 8001e9c:	18bfbd0e 	bge	r3,r2,8001d94 <__alt_data_end+0xfc001d94>
					currx = 0;
					curry++;
					last = false;
					}
				}
				if(move){
 8001ea0:	e0bf7803 	ldbu	r2,-544(fp)
 8001ea4:	10004326 	beq	r2,zero,8001fb4 <main+0xf9c>
					x +=1;
 8001ea8:	e0bf7a17 	ldw	r2,-536(fp)
 8001eac:	10800044 	addi	r2,r2,1
 8001eb0:	e0bf7a15 	stw	r2,-536(fp)
					for(int i =0;i<4;i++){
 8001eb4:	e03f9215 	stw	zero,-440(fp)
 8001eb8:	00003b06 	br	8001fa8 <main+0xf90>

						vga_ctrl->VRAM[blocks[i]+1] = select+1;
 8001ebc:	d0e00117 	ldw	r3,-32764(gp)
 8001ec0:	e0bf9217 	ldw	r2,-440(fp)
 8001ec4:	1085883a 	add	r2,r2,r2
 8001ec8:	1085883a 	add	r2,r2,r2
 8001ecc:	e13f7804 	addi	r4,fp,-544
 8001ed0:	2085883a 	add	r2,r4,r2
 8001ed4:	10802204 	addi	r2,r2,136
 8001ed8:	10800017 	ldw	r2,0(r2)
 8001edc:	10800044 	addi	r2,r2,1
 8001ee0:	e13f8117 	ldw	r4,-508(fp)
 8001ee4:	21000044 	addi	r4,r4,1
 8001ee8:	1085883a 	add	r2,r2,r2
 8001eec:	1085883a 	add	r2,r2,r2
 8001ef0:	1885883a 	add	r2,r3,r2
 8001ef4:	11000015 	stw	r4,0(r2)
						vga_ctrl->VRAM[blocks[i]] = 0b00000000000000000000000000000000;
 8001ef8:	d0e00117 	ldw	r3,-32764(gp)
 8001efc:	e0bf9217 	ldw	r2,-440(fp)
 8001f00:	1085883a 	add	r2,r2,r2
 8001f04:	1085883a 	add	r2,r2,r2
 8001f08:	e13f7804 	addi	r4,fp,-544
 8001f0c:	2085883a 	add	r2,r4,r2
 8001f10:	10802204 	addi	r2,r2,136
 8001f14:	10800017 	ldw	r2,0(r2)
 8001f18:	1085883a 	add	r2,r2,r2
 8001f1c:	1085883a 	add	r2,r2,r2
 8001f20:	1885883a 	add	r2,r3,r2
 8001f24:	10000015 	stw	zero,0(r2)
						occupied[blocks[i]] = 0;
 8001f28:	e0bf9217 	ldw	r2,-440(fp)
 8001f2c:	1085883a 	add	r2,r2,r2
 8001f30:	1085883a 	add	r2,r2,r2
 8001f34:	e0ff7804 	addi	r3,fp,-544
 8001f38:	1885883a 	add	r2,r3,r2
 8001f3c:	10802204 	addi	r2,r2,136
 8001f40:	10c00017 	ldw	r3,0(r2)
 8001f44:	008200b4 	movhi	r2,2050
 8001f48:	10ae9f04 	addi	r2,r2,-17796
 8001f4c:	18c7883a 	add	r3,r3,r3
 8001f50:	18c7883a 	add	r3,r3,r3
 8001f54:	10c5883a 	add	r2,r2,r3
 8001f58:	10000015 	stw	zero,0(r2)
						occupied[blocks[i]+1] = select+1;
 8001f5c:	e0bf9217 	ldw	r2,-440(fp)
 8001f60:	1085883a 	add	r2,r2,r2
 8001f64:	1085883a 	add	r2,r2,r2
 8001f68:	e13f7804 	addi	r4,fp,-544
 8001f6c:	2085883a 	add	r2,r4,r2
 8001f70:	10802204 	addi	r2,r2,136
 8001f74:	10800017 	ldw	r2,0(r2)
 8001f78:	10c00044 	addi	r3,r2,1
 8001f7c:	e0bf8117 	ldw	r2,-508(fp)
 8001f80:	11000044 	addi	r4,r2,1
 8001f84:	008200b4 	movhi	r2,2050
 8001f88:	10ae9f04 	addi	r2,r2,-17796
 8001f8c:	18c7883a 	add	r3,r3,r3
 8001f90:	18c7883a 	add	r3,r3,r3
 8001f94:	10c5883a 	add	r2,r2,r3
 8001f98:	11000015 	stw	r4,0(r2)
					last = false;
					}
				}
				if(move){
					x +=1;
					for(int i =0;i<4;i++){
 8001f9c:	e0bf9217 	ldw	r2,-440(fp)
 8001fa0:	10800044 	addi	r2,r2,1
 8001fa4:	e0bf9215 	stw	r2,-440(fp)
 8001fa8:	e0bf9217 	ldw	r2,-440(fp)
 8001fac:	10800110 	cmplti	r2,r2,4
 8001fb0:	103fc21e 	bne	r2,zero,8001ebc <__alt_data_end+0xfc001ebc>
						vga_ctrl->VRAM[blocks[i]] = 0b00000000000000000000000000000000;
						occupied[blocks[i]] = 0;
						occupied[blocks[i]+1] = select+1;
				}
				}
				currx = 0;
 8001fb4:	e03f7c15 	stw	zero,-528(fp)
				curry = 0;
 8001fb8:	e03f7d15 	stw	zero,-524(fp)
				block_count = 0;
 8001fbc:	e03f8015 	stw	zero,-512(fp)
				move = true;
 8001fc0:	00800044 	movi	r2,1
 8001fc4:	e0bf7805 	stb	r2,-544(fp)
				break;
 8001fc8:	0000ba06 	br	80022b4 <main+0x129c>
		case 0x16:
			for(int bit = 1 ; bit <= 0x8000 ; bit = bit << 1) {
 8001fcc:	00800044 	movi	r2,1
 8001fd0:	e0bf9315 	stw	r2,-436(fp)
 8001fd4:	00005d06 	br	800214c <main+0x1134>
				if((curr_tet & bit) != 0){
 8001fd8:	e0ff7e17 	ldw	r3,-520(fp)
 8001fdc:	e0bf9317 	ldw	r2,-436(fp)
 8001fe0:	1884703a 	and	r2,r3,r2
 8001fe4:	10003426 	beq	r2,zero,80020b8 <main+0x10a0>
					if(!isUsed(-currx+x+3,-curry+1+y+3) || last_down[currx]){
 8001fe8:	e0ff7a17 	ldw	r3,-536(fp)
 8001fec:	e0bf7c17 	ldw	r2,-528(fp)
 8001ff0:	1885c83a 	sub	r2,r3,r2
 8001ff4:	110000c4 	addi	r4,r2,3
 8001ff8:	00c00044 	movi	r3,1
 8001ffc:	e0bf7d17 	ldw	r2,-524(fp)
 8002000:	1887c83a 	sub	r3,r3,r2
 8002004:	e0bf7b17 	ldw	r2,-532(fp)
 8002008:	1885883a 	add	r2,r3,r2
 800200c:	108000c4 	addi	r2,r2,3
 8002010:	100b883a 	mov	r5,r2
 8002014:	80009380 	call	8000938 <isUsed>
 8002018:	1080005c 	xori	r2,r2,1
 800201c:	10803fcc 	andi	r2,r2,255
 8002020:	1000061e 	bne	r2,zero,800203c <main+0x1024>
 8002024:	e0ffa204 	addi	r3,fp,-376
 8002028:	e0bf7c17 	ldw	r2,-528(fp)
 800202c:	1885883a 	add	r2,r3,r2
 8002030:	10800003 	ldbu	r2,0(r2)
 8002034:	10803fcc 	andi	r2,r2,255
 8002038:	10001d26 	beq	r2,zero,80020b0 <main+0x1098>
						blocks[block_count] = (-curry+y+3)*10 + -currx + x+3;
 800203c:	e0ff7b17 	ldw	r3,-532(fp)
 8002040:	e0bf7d17 	ldw	r2,-524(fp)
 8002044:	1885c83a 	sub	r2,r3,r2
 8002048:	108000c4 	addi	r2,r2,3
 800204c:	01400284 	movi	r5,10
 8002050:	1009883a 	mov	r4,r2
 8002054:	80044340 	call	8004434 <__mulsi3>
 8002058:	1007883a 	mov	r3,r2
 800205c:	e0bf7c17 	ldw	r2,-528(fp)
 8002060:	1887c83a 	sub	r3,r3,r2
 8002064:	e0bf7a17 	ldw	r2,-536(fp)
 8002068:	1885883a 	add	r2,r3,r2
 800206c:	10c000c4 	addi	r3,r2,3
 8002070:	e0bf8017 	ldw	r2,-512(fp)
 8002074:	1085883a 	add	r2,r2,r2
 8002078:	1085883a 	add	r2,r2,r2
 800207c:	e13f7804 	addi	r4,fp,-544
 8002080:	2085883a 	add	r2,r4,r2
 8002084:	10802204 	addi	r2,r2,136
 8002088:	10c00015 	stw	r3,0(r2)
						block_count++;
 800208c:	e0bf8017 	ldw	r2,-512(fp)
 8002090:	10800044 	addi	r2,r2,1
 8002094:	e0bf8015 	stw	r2,-512(fp)
						now_down[currx] = true;
 8002098:	e0ffa304 	addi	r3,fp,-372
 800209c:	e0bf7c17 	ldw	r2,-528(fp)
 80020a0:	1885883a 	add	r2,r3,r2
 80020a4:	00c00044 	movi	r3,1
 80020a8:	10c00005 	stb	r3,0(r2)
 80020ac:	00000606 	br	80020c8 <main+0x10b0>
						}
					else{
						move = false;
 80020b0:	e03f7805 	stb	zero,-544(fp)
						break;
 80020b4:	00002806 	br	8002158 <main+0x1140>
					}
					}
				else{
					now_down[currx] = false;
 80020b8:	e0ffa304 	addi	r3,fp,-372
 80020bc:	e0bf7c17 	ldw	r2,-528(fp)
 80020c0:	1885883a 	add	r2,r3,r2
 80020c4:	10000005 	stb	zero,0(r2)
				}
				currx++;
 80020c8:	e0bf7c17 	ldw	r2,-528(fp)
 80020cc:	10800044 	addi	r2,r2,1
 80020d0:	e0bf7c15 	stw	r2,-528(fp)
				if(currx > 3){
 80020d4:	e0bf7c17 	ldw	r2,-528(fp)
 80020d8:	10800110 	cmplti	r2,r2,4
 80020dc:	1000181e 	bne	r2,zero,8002140 <main+0x1128>
					currx = 0;
 80020e0:	e03f7c15 	stw	zero,-528(fp)
					curry++;
 80020e4:	e0bf7d17 	ldw	r2,-524(fp)
 80020e8:	10800044 	addi	r2,r2,1
 80020ec:	e0bf7d15 	stw	r2,-524(fp)
					for(int i=0;i<4;i++){
 80020f0:	e03f9415 	stw	zero,-432(fp)
 80020f4:	00000f06 	br	8002134 <main+0x111c>
					last_down[i] = now_down[i];
 80020f8:	e0ffa304 	addi	r3,fp,-372
 80020fc:	e0bf9417 	ldw	r2,-432(fp)
 8002100:	1885883a 	add	r2,r3,r2
 8002104:	10c00003 	ldbu	r3,0(r2)
 8002108:	e13fa204 	addi	r4,fp,-376
 800210c:	e0bf9417 	ldw	r2,-432(fp)
 8002110:	2085883a 	add	r2,r4,r2
 8002114:	10c00005 	stb	r3,0(r2)
					now_down[i] = false;
 8002118:	e0ffa304 	addi	r3,fp,-372
 800211c:	e0bf9417 	ldw	r2,-432(fp)
 8002120:	1885883a 	add	r2,r3,r2
 8002124:	10000005 	stb	zero,0(r2)
				}
				currx++;
				if(currx > 3){
					currx = 0;
					curry++;
					for(int i=0;i<4;i++){
 8002128:	e0bf9417 	ldw	r2,-432(fp)
 800212c:	10800044 	addi	r2,r2,1
 8002130:	e0bf9415 	stw	r2,-432(fp)
 8002134:	e0bf9417 	ldw	r2,-432(fp)
 8002138:	10800110 	cmplti	r2,r2,4
 800213c:	103fee1e 	bne	r2,zero,80020f8 <__alt_data_end+0xfc0020f8>
				curry = 0;
				block_count = 0;
				move = true;
				break;
		case 0x16:
			for(int bit = 1 ; bit <= 0x8000 ; bit = bit << 1) {
 8002140:	e0bf9317 	ldw	r2,-436(fp)
 8002144:	1085883a 	add	r2,r2,r2
 8002148:	e0bf9315 	stw	r2,-436(fp)
 800214c:	e0bf9317 	ldw	r2,-436(fp)
 8002150:	00e00014 	movui	r3,32768
 8002154:	18bfa00e 	bge	r3,r2,8001fd8 <__alt_data_end+0xfc001fd8>
					last_down[i] = now_down[i];
					now_down[i] = false;
					}
				}
			}
			if(move){
 8002158:	e0bf7803 	ldbu	r2,-544(fp)
 800215c:	10004326 	beq	r2,zero,800226c <main+0x1254>
				y++;
 8002160:	e0bf7b17 	ldw	r2,-532(fp)
 8002164:	10800044 	addi	r2,r2,1
 8002168:	e0bf7b15 	stw	r2,-532(fp)
				for(int i =0;i<4;i++){
 800216c:	e03f9515 	stw	zero,-428(fp)
 8002170:	00003b06 	br	8002260 <main+0x1248>
					vga_ctrl->VRAM[blocks[i]+10] = select+1;
 8002174:	d0e00117 	ldw	r3,-32764(gp)
 8002178:	e0bf9517 	ldw	r2,-428(fp)
 800217c:	1085883a 	add	r2,r2,r2
 8002180:	1085883a 	add	r2,r2,r2
 8002184:	e13f7804 	addi	r4,fp,-544
 8002188:	2085883a 	add	r2,r4,r2
 800218c:	10802204 	addi	r2,r2,136
 8002190:	10800017 	ldw	r2,0(r2)
 8002194:	10800284 	addi	r2,r2,10
 8002198:	e13f8117 	ldw	r4,-508(fp)
 800219c:	21000044 	addi	r4,r4,1
 80021a0:	1085883a 	add	r2,r2,r2
 80021a4:	1085883a 	add	r2,r2,r2
 80021a8:	1885883a 	add	r2,r3,r2
 80021ac:	11000015 	stw	r4,0(r2)
					vga_ctrl->VRAM[blocks[i]] = 0b00000000000000000000000000000000;
 80021b0:	d0e00117 	ldw	r3,-32764(gp)
 80021b4:	e0bf9517 	ldw	r2,-428(fp)
 80021b8:	1085883a 	add	r2,r2,r2
 80021bc:	1085883a 	add	r2,r2,r2
 80021c0:	e13f7804 	addi	r4,fp,-544
 80021c4:	2085883a 	add	r2,r4,r2
 80021c8:	10802204 	addi	r2,r2,136
 80021cc:	10800017 	ldw	r2,0(r2)
 80021d0:	1085883a 	add	r2,r2,r2
 80021d4:	1085883a 	add	r2,r2,r2
 80021d8:	1885883a 	add	r2,r3,r2
 80021dc:	10000015 	stw	zero,0(r2)
					occupied[blocks[i]] = 0;
 80021e0:	e0bf9517 	ldw	r2,-428(fp)
 80021e4:	1085883a 	add	r2,r2,r2
 80021e8:	1085883a 	add	r2,r2,r2
 80021ec:	e0ff7804 	addi	r3,fp,-544
 80021f0:	1885883a 	add	r2,r3,r2
 80021f4:	10802204 	addi	r2,r2,136
 80021f8:	10c00017 	ldw	r3,0(r2)
 80021fc:	008200b4 	movhi	r2,2050
 8002200:	10ae9f04 	addi	r2,r2,-17796
 8002204:	18c7883a 	add	r3,r3,r3
 8002208:	18c7883a 	add	r3,r3,r3
 800220c:	10c5883a 	add	r2,r2,r3
 8002210:	10000015 	stw	zero,0(r2)
					occupied[blocks[i]+10] = select+1;
 8002214:	e0bf9517 	ldw	r2,-428(fp)
 8002218:	1085883a 	add	r2,r2,r2
 800221c:	1085883a 	add	r2,r2,r2
 8002220:	e13f7804 	addi	r4,fp,-544
 8002224:	2085883a 	add	r2,r4,r2
 8002228:	10802204 	addi	r2,r2,136
 800222c:	10800017 	ldw	r2,0(r2)
 8002230:	10c00284 	addi	r3,r2,10
 8002234:	e0bf8117 	ldw	r2,-508(fp)
 8002238:	11000044 	addi	r4,r2,1
 800223c:	008200b4 	movhi	r2,2050
 8002240:	10ae9f04 	addi	r2,r2,-17796
 8002244:	18c7883a 	add	r3,r3,r3
 8002248:	18c7883a 	add	r3,r3,r3
 800224c:	10c5883a 	add	r2,r2,r3
 8002250:	11000015 	stw	r4,0(r2)
					}
				}
			}
			if(move){
				y++;
				for(int i =0;i<4;i++){
 8002254:	e0bf9517 	ldw	r2,-428(fp)
 8002258:	10800044 	addi	r2,r2,1
 800225c:	e0bf9515 	stw	r2,-428(fp)
 8002260:	e0bf9517 	ldw	r2,-428(fp)
 8002264:	10800110 	cmplti	r2,r2,4
 8002268:	103fc21e 	bne	r2,zero,8002174 <__alt_data_end+0xfc002174>
					vga_ctrl->VRAM[blocks[i]] = 0b00000000000000000000000000000000;
					occupied[blocks[i]] = 0;
					occupied[blocks[i]+10] = select+1;
				}
			}
			currx = 0;
 800226c:	e03f7c15 	stw	zero,-528(fp)
			curry = 0;
 8002270:	e03f7d15 	stw	zero,-524(fp)
			block_count = 0;
 8002274:	e03f8015 	stw	zero,-512(fp)

			move = true;
 8002278:	00800044 	movi	r2,1
 800227c:	e0bf7805 	stb	r2,-544(fp)
			for(int i=0;i<4;i++){
 8002280:	e03f9615 	stw	zero,-424(fp)
 8002284:	00000706 	br	80022a4 <main+0x128c>
				last_down[i] = false;
 8002288:	e0ffa204 	addi	r3,fp,-376
 800228c:	e0bf9617 	ldw	r2,-424(fp)
 8002290:	1885883a 	add	r2,r3,r2
 8002294:	10000005 	stb	zero,0(r2)
			currx = 0;
			curry = 0;
			block_count = 0;

			move = true;
			for(int i=0;i<4;i++){
 8002298:	e0bf9617 	ldw	r2,-424(fp)
 800229c:	10800044 	addi	r2,r2,1
 80022a0:	e0bf9615 	stw	r2,-424(fp)
 80022a4:	e0bf9617 	ldw	r2,-424(fp)
 80022a8:	10800110 	cmplti	r2,r2,4
 80022ac:	103ff61e 	bne	r2,zero,8002288 <__alt_data_end+0xfc002288>
				last_down[i] = false;
			}
			break;
 80022b0:	0001883a 	nop
	}

		usleep(17000-1000*level);
 80022b4:	017f0604 	movi	r5,-1000
 80022b8:	e13f8617 	ldw	r4,-488(fp)
 80022bc:	80044340 	call	8004434 <__mulsi3>
 80022c0:	10909a04 	addi	r2,r2,17000
 80022c4:	1009883a 	mov	r4,r2
 80022c8:	80158d40 	call	80158d4 <usleep>
	}
 80022cc:	003bda06 	br	8001238 <__alt_data_end+0xfc001238>

080022d0 <HIDMProbe>:
/* HID Mouse probe. Called from USB state machine.                          */
/* assumes configuration length is less than 256 bytes                      */
/* looks for Class:03, Subclass: 01, Protocol: 02 in interface descriptor   */
/* sets mouse in boot protocol                                              */
/* assumes single configuration and interface configuration 0               */
BOOL HIDMProbe(BYTE addr, DWORD flags) {
 80022d0:	defff204 	addi	sp,sp,-56
 80022d4:	dfc00d15 	stw	ra,52(sp)
 80022d8:	df000c15 	stw	fp,48(sp)
 80022dc:	df000c04 	addi	fp,sp,48
 80022e0:	2005883a 	mov	r2,r4
 80022e4:	e17fff15 	stw	r5,-4(fp)
 80022e8:	e0bffe05 	stb	r2,-8(fp)
	BYTE tmpbyte;
	BYTE rcode;
	BYTE confvalue;
	WORD total_length;
	USB_DESCR* data_ptr = (USB_DESCR *) &bigbuf;
 80022ec:	008200b4 	movhi	r2,2050
 80022f0:	10af6704 	addi	r2,r2,-16996
 80022f4:	e0bffa15 	stw	r2,-24(fp)
	BYTE* byte_ptr = bigbuf;
 80022f8:	008200b4 	movhi	r2,2050
 80022fc:	10af6704 	addi	r2,r2,-16996
 8002300:	e0bffb15 	stw	r2,-20(fp)
	rcode = XferGetConfDescr(addr, 0, CONF_DESCR_LEN, 0, bigbuf); //get configuration descriptor
 8002304:	e0fffe03 	ldbu	r3,-8(fp)
 8002308:	008200b4 	movhi	r2,2050
 800230c:	10af6704 	addi	r2,r2,-16996
 8002310:	d8800415 	stw	r2,16(sp)
 8002314:	00800244 	movi	r2,9
 8002318:	d8800315 	stw	r2,12(sp)
 800231c:	d8000215 	stw	zero,8(sp)
 8002320:	00800084 	movi	r2,2
 8002324:	d8800115 	stw	r2,4(sp)
 8002328:	d8000015 	stw	zero,0(sp)
 800232c:	01c00184 	movi	r7,6
 8002330:	01802004 	movi	r6,128
 8002334:	000b883a 	mov	r5,zero
 8002338:	1809883a 	mov	r4,r3
 800233c:	80033e80 	call	80033e8 <XferCtrlReq>
 8002340:	e0bffc05 	stb	r2,-16(fp)
	if (rcode) {   //error handling
 8002344:	e0bffc03 	ldbu	r2,-16(fp)
 8002348:	10000226 	beq	r2,zero,8002354 <HIDMProbe+0x84>
		//printf("unable to get configuration descriptor");
		return (FALSE);
 800234c:	0005883a 	mov	r2,zero
 8002350:	0000dc06 	br	80026c4 <HIDMProbe+0x3f4>
	}
	if (data_ptr->descr.config.wTotalLength > 256) {
 8002354:	e0bffa17 	ldw	r2,-24(fp)
 8002358:	1080008b 	ldhu	r2,2(r2)
 800235c:	10bfffcc 	andi	r2,r2,65535
 8002360:	10804070 	cmpltui	r2,r2,257
 8002364:	1000031e 	bne	r2,zero,8002374 <HIDMProbe+0xa4>
		total_length = 256;
 8002368:	00804004 	movi	r2,256
 800236c:	e0bff90d 	sth	r2,-28(fp)
 8002370:	00000306 	br	8002380 <HIDMProbe+0xb0>
	} else {
		total_length = data_ptr->descr.config.wTotalLength;
 8002374:	e0bffa17 	ldw	r2,-24(fp)
 8002378:	1080008b 	ldhu	r2,2(r2)
 800237c:	e0bff90d 	sth	r2,-28(fp)
	}
	rcode = XferGetConfDescr(addr, 0, total_length, 0, bigbuf); //get the whole configuration
 8002380:	e13ffe03 	ldbu	r4,-8(fp)
 8002384:	e0fff90b 	ldhu	r3,-28(fp)
 8002388:	008200b4 	movhi	r2,2050
 800238c:	10af6704 	addi	r2,r2,-16996
 8002390:	d8800415 	stw	r2,16(sp)
 8002394:	d8c00315 	stw	r3,12(sp)
 8002398:	d8000215 	stw	zero,8(sp)
 800239c:	00800084 	movi	r2,2
 80023a0:	d8800115 	stw	r2,4(sp)
 80023a4:	d8000015 	stw	zero,0(sp)
 80023a8:	01c00184 	movi	r7,6
 80023ac:	01802004 	movi	r6,128
 80023b0:	000b883a 	mov	r5,zero
 80023b4:	80033e80 	call	80033e8 <XferCtrlReq>
 80023b8:	e0bffc05 	stb	r2,-16(fp)
	if (rcode) {   //error handling
 80023bc:	e0bffc03 	ldbu	r2,-16(fp)
 80023c0:	10000226 	beq	r2,zero,80023cc <HIDMProbe+0xfc>
		//printf("unable to get configuration");
		return (FALSE);
 80023c4:	0005883a 	mov	r2,zero
 80023c8:	0000be06 	br	80026c4 <HIDMProbe+0x3f4>
	}
	confvalue = data_ptr->descr.config.bConfigurationValue;
 80023cc:	e0bffa17 	ldw	r2,-24(fp)
 80023d0:	10800143 	ldbu	r2,5(r2)
 80023d4:	e0bffc45 	stb	r2,-15(fp)
	//printf("checking configuration value (length: %d): ",
	//		data_ptr->descr.config.wTotalLength);
	//for (int i = 0; i < data_ptr->descr.config.wTotalLength; i++) {
		//printf("%x ", (unsigned char) (bigbuf[i] & 0xff));
	//}
	while (byte_ptr < bigbuf + total_length) {
 80023d8:	0000b306 	br	80026a8 <HIDMProbe+0x3d8>
		if (data_ptr->descr.config.bDescriptorType != USB_DESCRIPTOR_INTERFACE) {
 80023dc:	e0bffa17 	ldw	r2,-24(fp)
 80023e0:	10800043 	ldbu	r2,1(r2)
 80023e4:	10803fcc 	andi	r2,r2,255
 80023e8:	10800120 	cmpeqi	r2,r2,4
 80023ec:	1000091e 	bne	r2,zero,8002414 <HIDMProbe+0x144>
			byte_ptr = byte_ptr + data_ptr->descr.config.bLength;
 80023f0:	e0bffa17 	ldw	r2,-24(fp)
 80023f4:	10800003 	ldbu	r2,0(r2)
 80023f8:	10803fcc 	andi	r2,r2,255
 80023fc:	e0fffb17 	ldw	r3,-20(fp)
 8002400:	1885883a 	add	r2,r3,r2
 8002404:	e0bffb15 	stw	r2,-20(fp)
			data_ptr = (USB_DESCR*) byte_ptr;
 8002408:	e0bffb17 	ldw	r2,-20(fp)
 800240c:	e0bffa15 	stw	r2,-24(fp)
 8002410:	0000a506 	br	80026a8 <HIDMProbe+0x3d8>
		} // if( data_ptr->descr.config.bDescriptorType != USB_DESCRIPTOR_INTERFACE
		else {
			//printf("starting interface parsing at byte location %d\n",
			//		data_ptr->descr.config.bLength);
			BYTE class = data_ptr->descr.interface.bInterfaceClass;
 8002414:	e0bffa17 	ldw	r2,-24(fp)
 8002418:	10800143 	ldbu	r2,5(r2)
 800241c:	e0bffc85 	stb	r2,-14(fp)
			BYTE subclass = data_ptr->descr.interface.bInterfaceSubClass;
 8002420:	e0bffa17 	ldw	r2,-24(fp)
 8002424:	10800183 	ldbu	r2,6(r2)
 8002428:	e0bffcc5 	stb	r2,-13(fp)
			BYTE protocol = data_ptr->descr.interface.bInterfaceProtocol;
 800242c:	e0bffa17 	ldw	r2,-24(fp)
 8002430:	108001c3 	ldbu	r2,7(r2)
 8002434:	e0bffd05 	stb	r2,-12(fp)
			//printf("class %x, subclass %x, protocol %x,\n", class, subclass,
			//		protocol);
			//interface descriptor
			if (class == HID_INTF && subclass == BOOT_INTF_SUBCLASS
 8002438:	e0bffc83 	ldbu	r2,-14(fp)
 800243c:	108000d8 	cmpnei	r2,r2,3
 8002440:	1000971e 	bne	r2,zero,80026a0 <HIDMProbe+0x3d0>
 8002444:	e0bffcc3 	ldbu	r2,-13(fp)
 8002448:	10800058 	cmpnei	r2,r2,1
 800244c:	1000941e 	bne	r2,zero,80026a0 <HIDMProbe+0x3d0>
					&& protocol == HID_PROTOCOL_MOUSE) {
 8002450:	e0bffd03 	ldbu	r2,-12(fp)
 8002454:	10800098 	cmpnei	r2,r2,2
 8002458:	1000911e 	bne	r2,zero,80026a0 <HIDMProbe+0x3d0>
				//detected a mouse
				devtable[addr].devclass = HID_M;                  //device class
 800245c:	e0fffe03 	ldbu	r3,-8(fp)
 8002460:	008200b4 	movhi	r2,2050
 8002464:	10afa704 	addi	r2,r2,-16740
 8002468:	180690fa 	slli	r3,r3,3
 800246c:	10c5883a 	add	r2,r2,r3
 8002470:	10800104 	addi	r2,r2,4
 8002474:	00c00084 	movi	r3,2
 8002478:	10c00005 	stb	r3,0(r2)
				tmpbyte = devtable[addr].epinfo->MaxPktSize;
 800247c:	e0fffe03 	ldbu	r3,-8(fp)
 8002480:	008200b4 	movhi	r2,2050
 8002484:	10afa704 	addi	r2,r2,-16740
 8002488:	180690fa 	slli	r3,r3,3
 800248c:	10c5883a 	add	r2,r2,r3
 8002490:	10800017 	ldw	r2,0(r2)
 8002494:	1080008b 	ldhu	r2,2(r2)
 8002498:	e0bffd45 	stb	r2,-11(fp)
				HID_init();                         //initialize data structures
 800249c:	8002ae00 	call	8002ae0 <HID_init>
				devtable[addr].epinfo = hid_ep; //switch endpoint information structure
 80024a0:	e0fffe03 	ldbu	r3,-8(fp)
 80024a4:	008200b4 	movhi	r2,2050
 80024a8:	10afa704 	addi	r2,r2,-16740
 80024ac:	180690fa 	slli	r3,r3,3
 80024b0:	10c7883a 	add	r3,r2,r3
 80024b4:	008200b4 	movhi	r2,2050
 80024b8:	10ae8b04 	addi	r2,r2,-17876
 80024bc:	18800015 	stw	r2,0(r3)
				devtable[addr].epinfo[0].MaxPktSize = tmpbyte;
 80024c0:	e0fffe03 	ldbu	r3,-8(fp)
 80024c4:	008200b4 	movhi	r2,2050
 80024c8:	10afa704 	addi	r2,r2,-16740
 80024cc:	180690fa 	slli	r3,r3,3
 80024d0:	10c5883a 	add	r2,r2,r3
 80024d4:	10800017 	ldw	r2,0(r2)
 80024d8:	e0fffd43 	ldbu	r3,-11(fp)
 80024dc:	10c0008d 	sth	r3,2(r2)
				hid_device.interface =
						data_ptr->descr.interface.bInterfaceNumber;
 80024e0:	e0bffa17 	ldw	r2,-24(fp)
 80024e4:	10800083 	ldbu	r2,2(r2)
				devtable[addr].devclass = HID_M;                  //device class
				tmpbyte = devtable[addr].epinfo->MaxPktSize;
				HID_init();                         //initialize data structures
				devtable[addr].epinfo = hid_ep; //switch endpoint information structure
				devtable[addr].epinfo[0].MaxPktSize = tmpbyte;
				hid_device.interface =
 80024e8:	d0a75c45 	stb	r2,-25231(gp)
						data_ptr->descr.interface.bInterfaceNumber;
				hid_device.addr = addr;
 80024ec:	e0bffe03 	ldbu	r2,-8(fp)
 80024f0:	d0a75c05 	stb	r2,-25232(gp)
				byte_ptr = byte_ptr + data_ptr->descr.config.bLength;
 80024f4:	e0bffa17 	ldw	r2,-24(fp)
 80024f8:	10800003 	ldbu	r2,0(r2)
 80024fc:	10803fcc 	andi	r2,r2,255
 8002500:	e0fffb17 	ldw	r3,-20(fp)
 8002504:	1885883a 	add	r2,r3,r2
 8002508:	e0bffb15 	stw	r2,-20(fp)
				data_ptr = (USB_DESCR*) byte_ptr;
 800250c:	e0bffb17 	ldw	r2,-20(fp)
 8002510:	e0bffa15 	stw	r2,-24(fp)
				while (byte_ptr < bigbuf + total_length) {
 8002514:	00005b06 	br	8002684 <HIDMProbe+0x3b4>
					if (data_ptr->descr.config.bDescriptorType
 8002518:	e0bffa17 	ldw	r2,-24(fp)
 800251c:	10800043 	ldbu	r2,1(r2)
 8002520:	10803fcc 	andi	r2,r2,255
 8002524:	10800160 	cmpeqi	r2,r2,5
 8002528:	1000091e 	bne	r2,zero,8002550 <HIDMProbe+0x280>
							!= USB_DESCRIPTOR_ENDPOINT) { //skip to endpoint descriptor
						byte_ptr = byte_ptr + data_ptr->descr.config.bLength;
 800252c:	e0bffa17 	ldw	r2,-24(fp)
 8002530:	10800003 	ldbu	r2,0(r2)
 8002534:	10803fcc 	andi	r2,r2,255
 8002538:	e0fffb17 	ldw	r3,-20(fp)
 800253c:	1885883a 	add	r2,r3,r2
 8002540:	e0bffb15 	stw	r2,-20(fp)
						data_ptr = (USB_DESCR*) byte_ptr;
 8002544:	e0bffb17 	ldw	r2,-20(fp)
 8002548:	e0bffa15 	stw	r2,-24(fp)
 800254c:	00004d06 	br	8002684 <HIDMProbe+0x3b4>
					} else {
						/* fill endpoint information structure */
						devtable[addr].epinfo[1].epAddr =
 8002550:	e0fffe03 	ldbu	r3,-8(fp)
 8002554:	008200b4 	movhi	r2,2050
 8002558:	10afa704 	addi	r2,r2,-16740
 800255c:	180690fa 	slli	r3,r3,3
 8002560:	10c5883a 	add	r2,r2,r3
 8002564:	10800017 	ldw	r2,0(r2)
 8002568:	10800204 	addi	r2,r2,8
								data_ptr->descr.endpoint.bEndpointAddress;
 800256c:	e0fffa17 	ldw	r3,-24(fp)
 8002570:	18c00083 	ldbu	r3,2(r3)
							!= USB_DESCRIPTOR_ENDPOINT) { //skip to endpoint descriptor
						byte_ptr = byte_ptr + data_ptr->descr.config.bLength;
						data_ptr = (USB_DESCR*) byte_ptr;
					} else {
						/* fill endpoint information structure */
						devtable[addr].epinfo[1].epAddr =
 8002574:	10c00005 	stb	r3,0(r2)
								data_ptr->descr.endpoint.bEndpointAddress;
						devtable[addr].epinfo[1].Attr =
 8002578:	e0fffe03 	ldbu	r3,-8(fp)
 800257c:	008200b4 	movhi	r2,2050
 8002580:	10afa704 	addi	r2,r2,-16740
 8002584:	180690fa 	slli	r3,r3,3
 8002588:	10c5883a 	add	r2,r2,r3
 800258c:	10800017 	ldw	r2,0(r2)
 8002590:	10800204 	addi	r2,r2,8
								data_ptr->descr.endpoint.bmAttributes;
 8002594:	e0fffa17 	ldw	r3,-24(fp)
 8002598:	18c000c3 	ldbu	r3,3(r3)
						data_ptr = (USB_DESCR*) byte_ptr;
					} else {
						/* fill endpoint information structure */
						devtable[addr].epinfo[1].epAddr =
								data_ptr->descr.endpoint.bEndpointAddress;
						devtable[addr].epinfo[1].Attr =
 800259c:	10c00045 	stb	r3,1(r2)
								data_ptr->descr.endpoint.bmAttributes;
						devtable[addr].epinfo[1].MaxPktSize =
 80025a0:	e0fffe03 	ldbu	r3,-8(fp)
 80025a4:	008200b4 	movhi	r2,2050
 80025a8:	10afa704 	addi	r2,r2,-16740
 80025ac:	180690fa 	slli	r3,r3,3
 80025b0:	10c5883a 	add	r2,r2,r3
 80025b4:	10800017 	ldw	r2,0(r2)
 80025b8:	10800204 	addi	r2,r2,8
								data_ptr->descr.endpoint.wMaxPacketSize;
 80025bc:	e0fffa17 	ldw	r3,-24(fp)
 80025c0:	18c0010b 	ldhu	r3,4(r3)
						/* fill endpoint information structure */
						devtable[addr].epinfo[1].epAddr =
								data_ptr->descr.endpoint.bEndpointAddress;
						devtable[addr].epinfo[1].Attr =
								data_ptr->descr.endpoint.bmAttributes;
						devtable[addr].epinfo[1].MaxPktSize =
 80025c4:	10c0008d 	sth	r3,2(r2)
								data_ptr->descr.endpoint.wMaxPacketSize;
						devtable[addr].epinfo[1].Interval =
 80025c8:	e0fffe03 	ldbu	r3,-8(fp)
 80025cc:	008200b4 	movhi	r2,2050
 80025d0:	10afa704 	addi	r2,r2,-16740
 80025d4:	180690fa 	slli	r3,r3,3
 80025d8:	10c5883a 	add	r2,r2,r3
 80025dc:	10800017 	ldw	r2,0(r2)
 80025e0:	10800204 	addi	r2,r2,8
								data_ptr->descr.endpoint.bInterval;
 80025e4:	e0fffa17 	ldw	r3,-24(fp)
 80025e8:	18c00183 	ldbu	r3,6(r3)
								data_ptr->descr.endpoint.bEndpointAddress;
						devtable[addr].epinfo[1].Attr =
								data_ptr->descr.endpoint.bmAttributes;
						devtable[addr].epinfo[1].MaxPktSize =
								data_ptr->descr.endpoint.wMaxPacketSize;
						devtable[addr].epinfo[1].Interval =
 80025ec:	10c00105 	stb	r3,4(r2)
								data_ptr->descr.endpoint.bInterval;
						// devtable[ addr ].epinfo[ 1 ].rcvToggle = bmRCVTOG0;
						/* configure device */
						rcode = XferSetConf(addr, 0, confvalue); //set configuration
 80025f0:	e0fffe03 	ldbu	r3,-8(fp)
 80025f4:	e0bffc43 	ldbu	r2,-15(fp)
 80025f8:	d8000415 	stw	zero,16(sp)
 80025fc:	d8000315 	stw	zero,12(sp)
 8002600:	d8000215 	stw	zero,8(sp)
 8002604:	d8000115 	stw	zero,4(sp)
 8002608:	d8800015 	stw	r2,0(sp)
 800260c:	01c00244 	movi	r7,9
 8002610:	000d883a 	mov	r6,zero
 8002614:	000b883a 	mov	r5,zero
 8002618:	1809883a 	mov	r4,r3
 800261c:	80033e80 	call	80033e8 <XferCtrlReq>
 8002620:	e0bffc05 	stb	r2,-16(fp)
						if (rcode) {   //error handling
 8002624:	e0bffc03 	ldbu	r2,-16(fp)
 8002628:	10000226 	beq	r2,zero,8002634 <HIDMProbe+0x364>
							return (FALSE);
 800262c:	0005883a 	mov	r2,zero
 8002630:	00002406 	br	80026c4 <HIDMProbe+0x3f4>
						}
						rcode = XferSetProto(addr, 0, hid_device.interface,
 8002634:	e0fffe03 	ldbu	r3,-8(fp)
 8002638:	d0a75c43 	ldbu	r2,-25231(gp)
 800263c:	10803fcc 	andi	r2,r2,255
 8002640:	d8000415 	stw	zero,16(sp)
 8002644:	d8000315 	stw	zero,12(sp)
 8002648:	d8800215 	stw	r2,8(sp)
 800264c:	d8000115 	stw	zero,4(sp)
 8002650:	d8000015 	stw	zero,0(sp)
 8002654:	01c002c4 	movi	r7,11
 8002658:	01800844 	movi	r6,33
 800265c:	000b883a 	mov	r5,zero
 8002660:	1809883a 	mov	r4,r3
 8002664:	80033e80 	call	80033e8 <XferCtrlReq>
 8002668:	e0bffc05 	stb	r2,-16(fp)
								BOOT_PROTOCOL);
						if (rcode) {   //error handling
 800266c:	e0bffc03 	ldbu	r2,-16(fp)
 8002670:	10000226 	beq	r2,zero,800267c <HIDMProbe+0x3ac>
							return (FALSE);
 8002674:	0005883a 	mov	r2,zero
 8002678:	00001206 	br	80026c4 <HIDMProbe+0x3f4>
						} else {
							return (TRUE);
 800267c:	00800044 	movi	r2,1
 8002680:	00001006 	br	80026c4 <HIDMProbe+0x3f4>
				hid_device.interface =
						data_ptr->descr.interface.bInterfaceNumber;
				hid_device.addr = addr;
				byte_ptr = byte_ptr + data_ptr->descr.config.bLength;
				data_ptr = (USB_DESCR*) byte_ptr;
				while (byte_ptr < bigbuf + total_length) {
 8002684:	e0fff90b 	ldhu	r3,-28(fp)
 8002688:	008200b4 	movhi	r2,2050
 800268c:	10af6704 	addi	r2,r2,-16996
 8002690:	1885883a 	add	r2,r3,r2
 8002694:	e0fffb17 	ldw	r3,-20(fp)
 8002698:	18bf9f36 	bltu	r3,r2,8002518 <__alt_data_end+0xfc002518>
			BYTE subclass = data_ptr->descr.interface.bInterfaceSubClass;
			BYTE protocol = data_ptr->descr.interface.bInterfaceProtocol;
			//printf("class %x, subclass %x, protocol %x,\n", class, subclass,
			//		protocol);
			//interface descriptor
			if (class == HID_INTF && subclass == BOOT_INTF_SUBCLASS
 800269c:	00000206 	br	80026a8 <HIDMProbe+0x3d8>
						}
					}
				}   //while( byte_ptr....
			}   //if (Class matches
			else { //if class don't match; die on first interface. Not really correct
				return (FALSE);
 80026a0:	0005883a 	mov	r2,zero
 80026a4:	00000706 	br	80026c4 <HIDMProbe+0x3f4>
	//printf("checking configuration value (length: %d): ",
	//		data_ptr->descr.config.wTotalLength);
	//for (int i = 0; i < data_ptr->descr.config.wTotalLength; i++) {
		//printf("%x ", (unsigned char) (bigbuf[i] & 0xff));
	//}
	while (byte_ptr < bigbuf + total_length) {
 80026a8:	e0fff90b 	ldhu	r3,-28(fp)
 80026ac:	008200b4 	movhi	r2,2050
 80026b0:	10af6704 	addi	r2,r2,-16996
 80026b4:	1885883a 	add	r2,r3,r2
 80026b8:	e0fffb17 	ldw	r3,-20(fp)
 80026bc:	18bf4736 	bltu	r3,r2,80023dc <__alt_data_end+0xfc0023dc>
			else { //if class don't match; die on first interface. Not really correct
				return (FALSE);
			}
		} //else if( data_ptr->
	} // while( byte_ptr < &buf + total_length
	return (FALSE);
 80026c0:	0005883a 	mov	r2,zero
}
 80026c4:	e037883a 	mov	sp,fp
 80026c8:	dfc00117 	ldw	ra,4(sp)
 80026cc:	df000017 	ldw	fp,0(sp)
 80026d0:	dec00204 	addi	sp,sp,8
 80026d4:	f800283a 	ret

080026d8 <HIDKProbe>:
/* HID Keyboard probe. Called from USB state machine.                           */
/* assumes configuration length is less than 256 bytes                          */
/* looks for Class:03, Subclass: 01, Protocol: 01 in interface descriptor       */
/* sets keyboard in boot protocol                                               */
/* assumes single configuration, single endpoint, and interface configuration 0 */
BOOL HIDKProbe(BYTE addr, DWORD flags) {
 80026d8:	defff204 	addi	sp,sp,-56
 80026dc:	dfc00d15 	stw	ra,52(sp)
 80026e0:	df000c15 	stw	fp,48(sp)
 80026e4:	df000c04 	addi	fp,sp,48
 80026e8:	2005883a 	mov	r2,r4
 80026ec:	e17fff15 	stw	r5,-4(fp)
 80026f0:	e0bffe05 	stb	r2,-8(fp)
	BYTE tmpbyte;
	BYTE rcode;
	BYTE confvalue;
	WORD total_length;
	USB_DESCR* data_ptr = (USB_DESCR *) &bigbuf;
 80026f4:	008200b4 	movhi	r2,2050
 80026f8:	10af6704 	addi	r2,r2,-16996
 80026fc:	e0bffa15 	stw	r2,-24(fp)
	BYTE* byte_ptr = bigbuf;
 8002700:	008200b4 	movhi	r2,2050
 8002704:	10af6704 	addi	r2,r2,-16996
 8002708:	e0bffb15 	stw	r2,-20(fp)
	rcode = XferGetConfDescr(addr, 0, CONF_DESCR_LEN, 0, bigbuf); //get configuration descriptor
 800270c:	e0fffe03 	ldbu	r3,-8(fp)
 8002710:	008200b4 	movhi	r2,2050
 8002714:	10af6704 	addi	r2,r2,-16996
 8002718:	d8800415 	stw	r2,16(sp)
 800271c:	00800244 	movi	r2,9
 8002720:	d8800315 	stw	r2,12(sp)
 8002724:	d8000215 	stw	zero,8(sp)
 8002728:	00800084 	movi	r2,2
 800272c:	d8800115 	stw	r2,4(sp)
 8002730:	d8000015 	stw	zero,0(sp)
 8002734:	01c00184 	movi	r7,6
 8002738:	01802004 	movi	r6,128
 800273c:	000b883a 	mov	r5,zero
 8002740:	1809883a 	mov	r4,r3
 8002744:	80033e80 	call	80033e8 <XferCtrlReq>
 8002748:	e0bffc05 	stb	r2,-16(fp)
	if (rcode) {   //error handling           
 800274c:	e0bffc03 	ldbu	r2,-16(fp)
 8002750:	10000226 	beq	r2,zero,800275c <HIDKProbe+0x84>
		return (FALSE);
 8002754:	0005883a 	mov	r2,zero
 8002758:	0000dc06 	br	8002acc <HIDKProbe+0x3f4>
	}
	if (data_ptr->descr.config.wTotalLength > 256) {
 800275c:	e0bffa17 	ldw	r2,-24(fp)
 8002760:	1080008b 	ldhu	r2,2(r2)
 8002764:	10bfffcc 	andi	r2,r2,65535
 8002768:	10804070 	cmpltui	r2,r2,257
 800276c:	1000031e 	bne	r2,zero,800277c <HIDKProbe+0xa4>
		total_length = 256;
 8002770:	00804004 	movi	r2,256
 8002774:	e0bff90d 	sth	r2,-28(fp)
 8002778:	00000306 	br	8002788 <HIDKProbe+0xb0>
	} else {
		total_length = data_ptr->descr.config.wTotalLength;
 800277c:	e0bffa17 	ldw	r2,-24(fp)
 8002780:	1080008b 	ldhu	r2,2(r2)
 8002784:	e0bff90d 	sth	r2,-28(fp)
	}
	rcode = XferGetConfDescr(addr, 0, total_length, 0, bigbuf); //get the whole configuration
 8002788:	e13ffe03 	ldbu	r4,-8(fp)
 800278c:	e0fff90b 	ldhu	r3,-28(fp)
 8002790:	008200b4 	movhi	r2,2050
 8002794:	10af6704 	addi	r2,r2,-16996
 8002798:	d8800415 	stw	r2,16(sp)
 800279c:	d8c00315 	stw	r3,12(sp)
 80027a0:	d8000215 	stw	zero,8(sp)
 80027a4:	00800084 	movi	r2,2
 80027a8:	d8800115 	stw	r2,4(sp)
 80027ac:	d8000015 	stw	zero,0(sp)
 80027b0:	01c00184 	movi	r7,6
 80027b4:	01802004 	movi	r6,128
 80027b8:	000b883a 	mov	r5,zero
 80027bc:	80033e80 	call	80033e8 <XferCtrlReq>
 80027c0:	e0bffc05 	stb	r2,-16(fp)
	if (rcode) {   //error handling
 80027c4:	e0bffc03 	ldbu	r2,-16(fp)
 80027c8:	10000226 	beq	r2,zero,80027d4 <HIDKProbe+0xfc>
		return (FALSE);
 80027cc:	0005883a 	mov	r2,zero
 80027d0:	0000be06 	br	8002acc <HIDKProbe+0x3f4>
	}
	confvalue = data_ptr->descr.config.bConfigurationValue; //save configuration value to use later
 80027d4:	e0bffa17 	ldw	r2,-24(fp)
 80027d8:	10800143 	ldbu	r2,5(r2)
 80027dc:	e0bffc45 	stb	r2,-15(fp)
	while (byte_ptr < bigbuf + total_length) {             //parse configuration
 80027e0:	0000b306 	br	8002ab0 <HIDKProbe+0x3d8>
		if (data_ptr->descr.config.bDescriptorType != USB_DESCRIPTOR_INTERFACE) { //skip to the next descriptor
 80027e4:	e0bffa17 	ldw	r2,-24(fp)
 80027e8:	10800043 	ldbu	r2,1(r2)
 80027ec:	10803fcc 	andi	r2,r2,255
 80027f0:	10800120 	cmpeqi	r2,r2,4
 80027f4:	1000091e 	bne	r2,zero,800281c <HIDKProbe+0x144>
			byte_ptr = byte_ptr + data_ptr->descr.config.bLength;
 80027f8:	e0bffa17 	ldw	r2,-24(fp)
 80027fc:	10800003 	ldbu	r2,0(r2)
 8002800:	10803fcc 	andi	r2,r2,255
 8002804:	e0fffb17 	ldw	r3,-20(fp)
 8002808:	1885883a 	add	r2,r3,r2
 800280c:	e0bffb15 	stw	r2,-20(fp)
			data_ptr = (USB_DESCR*) byte_ptr;
 8002810:	e0bffb17 	ldw	r2,-20(fp)
 8002814:	e0bffa15 	stw	r2,-24(fp)
 8002818:	0000a506 	br	8002ab0 <HIDKProbe+0x3d8>
		} // if( data_ptr->descr.config.bDescriptorType != USB_DESCRIPTOR_INTERFACE
		else {
			//printf("starting interface parsing at byte location %d\n",
			//		data_ptr->descr.config.bLength);
			BYTE class = data_ptr->descr.interface.bInterfaceClass;
 800281c:	e0bffa17 	ldw	r2,-24(fp)
 8002820:	10800143 	ldbu	r2,5(r2)
 8002824:	e0bffc85 	stb	r2,-14(fp)
			BYTE subclass = data_ptr->descr.interface.bInterfaceSubClass;
 8002828:	e0bffa17 	ldw	r2,-24(fp)
 800282c:	10800183 	ldbu	r2,6(r2)
 8002830:	e0bffcc5 	stb	r2,-13(fp)
			BYTE protocol = data_ptr->descr.interface.bInterfaceProtocol;
 8002834:	e0bffa17 	ldw	r2,-24(fp)
 8002838:	108001c3 	ldbu	r2,7(r2)
 800283c:	e0bffd05 	stb	r2,-12(fp)
			//printf("class %x, subclass %x, protocol %x,\n", class, subclass,
			//		protocol);
			//interface descriptor
			if (class == HID_INTF && subclass == BOOT_INTF_SUBCLASS
 8002840:	e0bffc83 	ldbu	r2,-14(fp)
 8002844:	108000d8 	cmpnei	r2,r2,3
 8002848:	1000971e 	bne	r2,zero,8002aa8 <HIDKProbe+0x3d0>
 800284c:	e0bffcc3 	ldbu	r2,-13(fp)
 8002850:	10800058 	cmpnei	r2,r2,1
 8002854:	1000941e 	bne	r2,zero,8002aa8 <HIDKProbe+0x3d0>
					&& protocol == HID_PROTOCOL_KEYBOARD) {
 8002858:	e0bffd03 	ldbu	r2,-12(fp)
 800285c:	10800058 	cmpnei	r2,r2,1
 8002860:	1000911e 	bne	r2,zero,8002aa8 <HIDKProbe+0x3d0>
				//detected a keyboard
				devtable[addr].devclass = HID_K;             //fill device class
 8002864:	e0fffe03 	ldbu	r3,-8(fp)
 8002868:	008200b4 	movhi	r2,2050
 800286c:	10afa704 	addi	r2,r2,-16740
 8002870:	180690fa 	slli	r3,r3,3
 8002874:	10c5883a 	add	r2,r2,r3
 8002878:	10800104 	addi	r2,r2,4
 800287c:	00c00044 	movi	r3,1
 8002880:	10c00005 	stb	r3,0(r2)
				tmpbyte = devtable[addr].epinfo->MaxPktSize; //save max.packet size
 8002884:	e0fffe03 	ldbu	r3,-8(fp)
 8002888:	008200b4 	movhi	r2,2050
 800288c:	10afa704 	addi	r2,r2,-16740
 8002890:	180690fa 	slli	r3,r3,3
 8002894:	10c5883a 	add	r2,r2,r3
 8002898:	10800017 	ldw	r2,0(r2)
 800289c:	1080008b 	ldhu	r2,2(r2)
 80028a0:	e0bffd45 	stb	r2,-11(fp)
				HID_init();                         //initialize data structures
 80028a4:	8002ae00 	call	8002ae0 <HID_init>
				devtable[addr].epinfo = hid_ep; //switch endpoint information structure
 80028a8:	e0fffe03 	ldbu	r3,-8(fp)
 80028ac:	008200b4 	movhi	r2,2050
 80028b0:	10afa704 	addi	r2,r2,-16740
 80028b4:	180690fa 	slli	r3,r3,3
 80028b8:	10c7883a 	add	r3,r2,r3
 80028bc:	008200b4 	movhi	r2,2050
 80028c0:	10ae8b04 	addi	r2,r2,-17876
 80028c4:	18800015 	stw	r2,0(r3)
				devtable[addr].epinfo[0].MaxPktSize = tmpbyte; //fill in max.packet size
 80028c8:	e0fffe03 	ldbu	r3,-8(fp)
 80028cc:	008200b4 	movhi	r2,2050
 80028d0:	10afa704 	addi	r2,r2,-16740
 80028d4:	180690fa 	slli	r3,r3,3
 80028d8:	10c5883a 	add	r2,r2,r3
 80028dc:	10800017 	ldw	r2,0(r2)
 80028e0:	e0fffd43 	ldbu	r3,-11(fp)
 80028e4:	10c0008d 	sth	r3,2(r2)
				hid_device.interface =
						data_ptr->descr.interface.bInterfaceNumber; //fill in interface number to be used in HID requests
 80028e8:	e0bffa17 	ldw	r2,-24(fp)
 80028ec:	10800083 	ldbu	r2,2(r2)
				devtable[addr].devclass = HID_K;             //fill device class
				tmpbyte = devtable[addr].epinfo->MaxPktSize; //save max.packet size
				HID_init();                         //initialize data structures
				devtable[addr].epinfo = hid_ep; //switch endpoint information structure
				devtable[addr].epinfo[0].MaxPktSize = tmpbyte; //fill in max.packet size
				hid_device.interface =
 80028f0:	d0a75c45 	stb	r2,-25231(gp)
						data_ptr->descr.interface.bInterfaceNumber; //fill in interface number to be used in HID requests
				hid_device.addr = addr;                        //fill in address
 80028f4:	e0bffe03 	ldbu	r2,-8(fp)
 80028f8:	d0a75c05 	stb	r2,-25232(gp)
				byte_ptr = byte_ptr + data_ptr->descr.config.bLength; //skip to the next descriptor
 80028fc:	e0bffa17 	ldw	r2,-24(fp)
 8002900:	10800003 	ldbu	r2,0(r2)
 8002904:	10803fcc 	andi	r2,r2,255
 8002908:	e0fffb17 	ldw	r3,-20(fp)
 800290c:	1885883a 	add	r2,r3,r2
 8002910:	e0bffb15 	stw	r2,-20(fp)
				data_ptr = (USB_DESCR*) byte_ptr;
 8002914:	e0bffb17 	ldw	r2,-20(fp)
 8002918:	e0bffa15 	stw	r2,-24(fp)
				while (byte_ptr < bigbuf + total_length) {
 800291c:	00005b06 	br	8002a8c <HIDKProbe+0x3b4>
					if (data_ptr->descr.config.bDescriptorType
 8002920:	e0bffa17 	ldw	r2,-24(fp)
 8002924:	10800043 	ldbu	r2,1(r2)
 8002928:	10803fcc 	andi	r2,r2,255
 800292c:	10800160 	cmpeqi	r2,r2,5
 8002930:	1000091e 	bne	r2,zero,8002958 <HIDKProbe+0x280>
							!= USB_DESCRIPTOR_ENDPOINT) { //skip to endpoint descriptor
						byte_ptr = byte_ptr + data_ptr->descr.config.bLength;
 8002934:	e0bffa17 	ldw	r2,-24(fp)
 8002938:	10800003 	ldbu	r2,0(r2)
 800293c:	10803fcc 	andi	r2,r2,255
 8002940:	e0fffb17 	ldw	r3,-20(fp)
 8002944:	1885883a 	add	r2,r3,r2
 8002948:	e0bffb15 	stw	r2,-20(fp)
						data_ptr = (USB_DESCR*) byte_ptr;
 800294c:	e0bffb17 	ldw	r2,-20(fp)
 8002950:	e0bffa15 	stw	r2,-24(fp)
 8002954:	00004d06 	br	8002a8c <HIDKProbe+0x3b4>
					} else {
						/* fill endpoint information structure */
						devtable[addr].epinfo[1].epAddr =
 8002958:	e0fffe03 	ldbu	r3,-8(fp)
 800295c:	008200b4 	movhi	r2,2050
 8002960:	10afa704 	addi	r2,r2,-16740
 8002964:	180690fa 	slli	r3,r3,3
 8002968:	10c5883a 	add	r2,r2,r3
 800296c:	10800017 	ldw	r2,0(r2)
 8002970:	10800204 	addi	r2,r2,8
								data_ptr->descr.endpoint.bEndpointAddress;
 8002974:	e0fffa17 	ldw	r3,-24(fp)
 8002978:	18c00083 	ldbu	r3,2(r3)
							!= USB_DESCRIPTOR_ENDPOINT) { //skip to endpoint descriptor
						byte_ptr = byte_ptr + data_ptr->descr.config.bLength;
						data_ptr = (USB_DESCR*) byte_ptr;
					} else {
						/* fill endpoint information structure */
						devtable[addr].epinfo[1].epAddr =
 800297c:	10c00005 	stb	r3,0(r2)
								data_ptr->descr.endpoint.bEndpointAddress;
						devtable[addr].epinfo[1].Attr =
 8002980:	e0fffe03 	ldbu	r3,-8(fp)
 8002984:	008200b4 	movhi	r2,2050
 8002988:	10afa704 	addi	r2,r2,-16740
 800298c:	180690fa 	slli	r3,r3,3
 8002990:	10c5883a 	add	r2,r2,r3
 8002994:	10800017 	ldw	r2,0(r2)
 8002998:	10800204 	addi	r2,r2,8
								data_ptr->descr.endpoint.bmAttributes;
 800299c:	e0fffa17 	ldw	r3,-24(fp)
 80029a0:	18c000c3 	ldbu	r3,3(r3)
						data_ptr = (USB_DESCR*) byte_ptr;
					} else {
						/* fill endpoint information structure */
						devtable[addr].epinfo[1].epAddr =
								data_ptr->descr.endpoint.bEndpointAddress;
						devtable[addr].epinfo[1].Attr =
 80029a4:	10c00045 	stb	r3,1(r2)
								data_ptr->descr.endpoint.bmAttributes;
						devtable[addr].epinfo[1].MaxPktSize =
 80029a8:	e0fffe03 	ldbu	r3,-8(fp)
 80029ac:	008200b4 	movhi	r2,2050
 80029b0:	10afa704 	addi	r2,r2,-16740
 80029b4:	180690fa 	slli	r3,r3,3
 80029b8:	10c5883a 	add	r2,r2,r3
 80029bc:	10800017 	ldw	r2,0(r2)
 80029c0:	10800204 	addi	r2,r2,8
								data_ptr->descr.endpoint.wMaxPacketSize;
 80029c4:	e0fffa17 	ldw	r3,-24(fp)
 80029c8:	18c0010b 	ldhu	r3,4(r3)
						/* fill endpoint information structure */
						devtable[addr].epinfo[1].epAddr =
								data_ptr->descr.endpoint.bEndpointAddress;
						devtable[addr].epinfo[1].Attr =
								data_ptr->descr.endpoint.bmAttributes;
						devtable[addr].epinfo[1].MaxPktSize =
 80029cc:	10c0008d 	sth	r3,2(r2)
								data_ptr->descr.endpoint.wMaxPacketSize;
						devtable[addr].epinfo[1].Interval =
 80029d0:	e0fffe03 	ldbu	r3,-8(fp)
 80029d4:	008200b4 	movhi	r2,2050
 80029d8:	10afa704 	addi	r2,r2,-16740
 80029dc:	180690fa 	slli	r3,r3,3
 80029e0:	10c5883a 	add	r2,r2,r3
 80029e4:	10800017 	ldw	r2,0(r2)
 80029e8:	10800204 	addi	r2,r2,8
								data_ptr->descr.endpoint.bInterval;
 80029ec:	e0fffa17 	ldw	r3,-24(fp)
 80029f0:	18c00183 	ldbu	r3,6(r3)
								data_ptr->descr.endpoint.bEndpointAddress;
						devtable[addr].epinfo[1].Attr =
								data_ptr->descr.endpoint.bmAttributes;
						devtable[addr].epinfo[1].MaxPktSize =
								data_ptr->descr.endpoint.wMaxPacketSize;
						devtable[addr].epinfo[1].Interval =
 80029f4:	10c00105 	stb	r3,4(r2)
								data_ptr->descr.endpoint.bInterval;
						/* configure device */
						rcode = XferSetConf(addr, 0, confvalue); //set configuration
 80029f8:	e0fffe03 	ldbu	r3,-8(fp)
 80029fc:	e0bffc43 	ldbu	r2,-15(fp)
 8002a00:	d8000415 	stw	zero,16(sp)
 8002a04:	d8000315 	stw	zero,12(sp)
 8002a08:	d8000215 	stw	zero,8(sp)
 8002a0c:	d8000115 	stw	zero,4(sp)
 8002a10:	d8800015 	stw	r2,0(sp)
 8002a14:	01c00244 	movi	r7,9
 8002a18:	000d883a 	mov	r6,zero
 8002a1c:	000b883a 	mov	r5,zero
 8002a20:	1809883a 	mov	r4,r3
 8002a24:	80033e80 	call	80033e8 <XferCtrlReq>
 8002a28:	e0bffc05 	stb	r2,-16(fp)
						if (rcode) {   //error handling
 8002a2c:	e0bffc03 	ldbu	r2,-16(fp)
 8002a30:	10000226 	beq	r2,zero,8002a3c <HIDKProbe+0x364>
							return (FALSE);
 8002a34:	0005883a 	mov	r2,zero
 8002a38:	00002406 	br	8002acc <HIDKProbe+0x3f4>
						}
						rcode = XferSetProto(addr, 0, hid_device.interface,
 8002a3c:	e0fffe03 	ldbu	r3,-8(fp)
 8002a40:	d0a75c43 	ldbu	r2,-25231(gp)
 8002a44:	10803fcc 	andi	r2,r2,255
 8002a48:	d8000415 	stw	zero,16(sp)
 8002a4c:	d8000315 	stw	zero,12(sp)
 8002a50:	d8800215 	stw	r2,8(sp)
 8002a54:	d8000115 	stw	zero,4(sp)
 8002a58:	d8000015 	stw	zero,0(sp)
 8002a5c:	01c002c4 	movi	r7,11
 8002a60:	01800844 	movi	r6,33
 8002a64:	000b883a 	mov	r5,zero
 8002a68:	1809883a 	mov	r4,r3
 8002a6c:	80033e80 	call	80033e8 <XferCtrlReq>
 8002a70:	e0bffc05 	stb	r2,-16(fp)
								BOOT_PROTOCOL);
						if (rcode) {   //error handling
 8002a74:	e0bffc03 	ldbu	r2,-16(fp)
 8002a78:	10000226 	beq	r2,zero,8002a84 <HIDKProbe+0x3ac>
							return (FALSE);
 8002a7c:	0005883a 	mov	r2,zero
 8002a80:	00001206 	br	8002acc <HIDKProbe+0x3f4>
						} else {
							return (TRUE);
 8002a84:	00800044 	movi	r2,1
 8002a88:	00001006 	br	8002acc <HIDKProbe+0x3f4>
				hid_device.interface =
						data_ptr->descr.interface.bInterfaceNumber; //fill in interface number to be used in HID requests
				hid_device.addr = addr;                        //fill in address
				byte_ptr = byte_ptr + data_ptr->descr.config.bLength; //skip to the next descriptor
				data_ptr = (USB_DESCR*) byte_ptr;
				while (byte_ptr < bigbuf + total_length) {
 8002a8c:	e0fff90b 	ldhu	r3,-28(fp)
 8002a90:	008200b4 	movhi	r2,2050
 8002a94:	10af6704 	addi	r2,r2,-16996
 8002a98:	1885883a 	add	r2,r3,r2
 8002a9c:	e0fffb17 	ldw	r3,-20(fp)
 8002aa0:	18bf9f36 	bltu	r3,r2,8002920 <__alt_data_end+0xfc002920>
			BYTE subclass = data_ptr->descr.interface.bInterfaceSubClass;
			BYTE protocol = data_ptr->descr.interface.bInterfaceProtocol;
			//printf("class %x, subclass %x, protocol %x,\n", class, subclass,
			//		protocol);
			//interface descriptor
			if (class == HID_INTF && subclass == BOOT_INTF_SUBCLASS
 8002aa4:	00000206 	br	8002ab0 <HIDKProbe+0x3d8>
						}
					}
				}   //while( byte_ptr....
			}   //if (Class matches
			else { //if class don't match; stop processing after first interface. Not really correct
				return (FALSE);
 8002aa8:	0005883a 	mov	r2,zero
 8002aac:	00000706 	br	8002acc <HIDKProbe+0x3f4>
	rcode = XferGetConfDescr(addr, 0, total_length, 0, bigbuf); //get the whole configuration
	if (rcode) {   //error handling
		return (FALSE);
	}
	confvalue = data_ptr->descr.config.bConfigurationValue; //save configuration value to use later
	while (byte_ptr < bigbuf + total_length) {             //parse configuration
 8002ab0:	e0fff90b 	ldhu	r3,-28(fp)
 8002ab4:	008200b4 	movhi	r2,2050
 8002ab8:	10af6704 	addi	r2,r2,-16996
 8002abc:	1885883a 	add	r2,r3,r2
 8002ac0:	e0fffb17 	ldw	r3,-20(fp)
 8002ac4:	18bf4736 	bltu	r3,r2,80027e4 <__alt_data_end+0xfc0027e4>
			else { //if class don't match; stop processing after first interface. Not really correct
				return (FALSE);
			}
		} //else if( data_ptr->
	} // while( byte_ptr < &buf + total_length
	return (FALSE);
 8002ac8:	0005883a 	mov	r2,zero
}
 8002acc:	e037883a 	mov	sp,fp
 8002ad0:	dfc00117 	ldw	ra,4(sp)
 8002ad4:	df000017 	ldw	fp,0(sp)
 8002ad8:	dec00204 	addi	sp,sp,8
 8002adc:	f800283a 	ret

08002ae0 <HID_init>:
/* HID data structures initialization */
void HID_init(void) {
 8002ae0:	deffff04 	addi	sp,sp,-4
 8002ae4:	df000015 	stw	fp,0(sp)
 8002ae8:	d839883a 	mov	fp,sp
	hid_ep[1].sndToggle = bmSNDTOG0;
 8002aec:	008200b4 	movhi	r2,2050
 8002af0:	10ae8b04 	addi	r2,r2,-17876
 8002af4:	00c01004 	movi	r3,64
 8002af8:	10c00345 	stb	r3,13(r2)
	hid_ep[1].rcvToggle = bmRCVTOG0;
 8002afc:	008200b4 	movhi	r2,2050
 8002b00:	10ae8b04 	addi	r2,r2,-17876
 8002b04:	00c00404 	movi	r3,16
 8002b08:	10c00385 	stb	r3,14(r2)
}
 8002b0c:	0001883a 	nop
 8002b10:	e037883a 	mov	sp,fp
 8002b14:	df000017 	ldw	fp,0(sp)
 8002b18:	dec00104 	addi	sp,sp,4
 8002b1c:	f800283a 	ret

08002b20 <mousePoll>:
/* poll boot mouse */
BYTE mousePoll(BOOT_MOUSE_REPORT* buf) {
 8002b20:	defffb04 	addi	sp,sp,-20
 8002b24:	dfc00415 	stw	ra,16(sp)
 8002b28:	df000315 	stw	fp,12(sp)
 8002b2c:	df000304 	addi	fp,sp,12
 8002b30:	e13fff15 	stw	r4,-4(fp)
	BYTE rcode;
	MAXreg_wr( rPERADDR, hid_device.addr);    //set peripheral address
 8002b34:	d0a75c03 	ldbu	r2,-25232(gp)
 8002b38:	10803fcc 	andi	r2,r2,255
 8002b3c:	100b883a 	mov	r5,r2
 8002b40:	01003804 	movi	r4,224
 8002b44:	8002cfc0 	call	8002cfc <MAXreg_wr>
	rcode = XferInTransfer(hid_device.addr, 1, 8, (BYTE*) buf,
 8002b48:	d0a75c03 	ldbu	r2,-25232(gp)
 8002b4c:	11003fcc 	andi	r4,r2,255
			devtable[hid_device.addr].epinfo[1].MaxPktSize);
 8002b50:	d0a75c03 	ldbu	r2,-25232(gp)
 8002b54:	10c03fcc 	andi	r3,r2,255
 8002b58:	008200b4 	movhi	r2,2050
 8002b5c:	10afa704 	addi	r2,r2,-16740
 8002b60:	180690fa 	slli	r3,r3,3
 8002b64:	10c5883a 	add	r2,r2,r3
 8002b68:	10800017 	ldw	r2,0(r2)
 8002b6c:	10800204 	addi	r2,r2,8
 8002b70:	1080008b 	ldhu	r2,2(r2)
}
/* poll boot mouse */
BYTE mousePoll(BOOT_MOUSE_REPORT* buf) {
	BYTE rcode;
	MAXreg_wr( rPERADDR, hid_device.addr);    //set peripheral address
	rcode = XferInTransfer(hid_device.addr, 1, 8, (BYTE*) buf,
 8002b74:	10803fcc 	andi	r2,r2,255
 8002b78:	d8800015 	stw	r2,0(sp)
 8002b7c:	e1ffff17 	ldw	r7,-4(fp)
 8002b80:	01800204 	movi	r6,8
 8002b84:	01400044 	movi	r5,1
 8002b88:	800380c0 	call	800380c <XferInTransfer>
 8002b8c:	e0bffe05 	stb	r2,-8(fp)
			devtable[hid_device.addr].epinfo[1].MaxPktSize);
	return (rcode);
 8002b90:	e0bffe03 	ldbu	r2,-8(fp)
}
 8002b94:	e037883a 	mov	sp,fp
 8002b98:	dfc00117 	ldw	ra,4(sp)
 8002b9c:	df000017 	ldw	fp,0(sp)
 8002ba0:	dec00204 	addi	sp,sp,8
 8002ba4:	f800283a 	ret

08002ba8 <kbdPoll>:
/* poll boot keyboard */
BYTE kbdPoll(BOOT_KBD_REPORT* buf) {
 8002ba8:	defffb04 	addi	sp,sp,-20
 8002bac:	dfc00415 	stw	ra,16(sp)
 8002bb0:	df000315 	stw	fp,12(sp)
 8002bb4:	df000304 	addi	fp,sp,12
 8002bb8:	e13fff15 	stw	r4,-4(fp)
	BYTE rcode;
	MAXreg_wr( rPERADDR, hid_device.addr);    //set peripheral address
 8002bbc:	d0a75c03 	ldbu	r2,-25232(gp)
 8002bc0:	10803fcc 	andi	r2,r2,255
 8002bc4:	100b883a 	mov	r5,r2
 8002bc8:	01003804 	movi	r4,224
 8002bcc:	8002cfc0 	call	8002cfc <MAXreg_wr>
	rcode = XferInTransfer(hid_device.addr, 1, 8, (BYTE*) buf,
 8002bd0:	d0a75c03 	ldbu	r2,-25232(gp)
 8002bd4:	11003fcc 	andi	r4,r2,255
			devtable[hid_device.addr].epinfo[1].MaxPktSize);
 8002bd8:	d0a75c03 	ldbu	r2,-25232(gp)
 8002bdc:	10c03fcc 	andi	r3,r2,255
 8002be0:	008200b4 	movhi	r2,2050
 8002be4:	10afa704 	addi	r2,r2,-16740
 8002be8:	180690fa 	slli	r3,r3,3
 8002bec:	10c5883a 	add	r2,r2,r3
 8002bf0:	10800017 	ldw	r2,0(r2)
 8002bf4:	10800204 	addi	r2,r2,8
 8002bf8:	1080008b 	ldhu	r2,2(r2)
}
/* poll boot keyboard */
BYTE kbdPoll(BOOT_KBD_REPORT* buf) {
	BYTE rcode;
	MAXreg_wr( rPERADDR, hid_device.addr);    //set peripheral address
	rcode = XferInTransfer(hid_device.addr, 1, 8, (BYTE*) buf,
 8002bfc:	10803fcc 	andi	r2,r2,255
 8002c00:	d8800015 	stw	r2,0(sp)
 8002c04:	e1ffff17 	ldw	r7,-4(fp)
 8002c08:	01800204 	movi	r6,8
 8002c0c:	01400044 	movi	r5,1
 8002c10:	800380c0 	call	800380c <XferInTransfer>
 8002c14:	e0bffe05 	stb	r2,-8(fp)
			devtable[hid_device.addr].epinfo[1].MaxPktSize);
	return (rcode);
 8002c18:	e0bffe03 	ldbu	r2,-8(fp)
}
 8002c1c:	e037883a 	mov	sp,fp
 8002c20:	dfc00117 	ldw	ra,4(sp)
 8002c24:	df000017 	ldw	fp,0(sp)
 8002c28:	dec00204 	addi	sp,sp,8
 8002c2c:	f800283a 	ret

08002c30 <HIDMEventHandler>:
BOOL HIDMEventHandler(BYTE address, BYTE event, void *data, DWORD size) {
 8002c30:	defffb04 	addi	sp,sp,-20
 8002c34:	df000415 	stw	fp,16(sp)
 8002c38:	df000404 	addi	fp,sp,16
 8002c3c:	2007883a 	mov	r3,r4
 8002c40:	2805883a 	mov	r2,r5
 8002c44:	e1bffe15 	stw	r6,-8(fp)
 8002c48:	e1ffff15 	stw	r7,-4(fp)
 8002c4c:	e0fffc05 	stb	r3,-16(fp)
 8002c50:	e0bffd05 	stb	r2,-12(fp)
	return (FALSE);
 8002c54:	0005883a 	mov	r2,zero
}
 8002c58:	e037883a 	mov	sp,fp
 8002c5c:	df000017 	ldw	fp,0(sp)
 8002c60:	dec00104 	addi	sp,sp,4
 8002c64:	f800283a 	ret

08002c68 <HIDKEventHandler>:
BOOL HIDKEventHandler(BYTE address, BYTE event, void *data, DWORD size) {
 8002c68:	defffb04 	addi	sp,sp,-20
 8002c6c:	df000415 	stw	fp,16(sp)
 8002c70:	df000404 	addi	fp,sp,16
 8002c74:	2007883a 	mov	r3,r4
 8002c78:	2805883a 	mov	r2,r5
 8002c7c:	e1bffe15 	stw	r6,-8(fp)
 8002c80:	e1ffff15 	stw	r7,-4(fp)
 8002c84:	e0fffc05 	stb	r3,-16(fp)
 8002c88:	e0bffd05 	stb	r2,-12(fp)
	return (FALSE);
 8002c8c:	0005883a 	mov	r2,zero
}
 8002c90:	e037883a 	mov	sp,fp
 8002c94:	df000017 	ldw	fp,0(sp)
 8002c98:	dec00104 	addi	sp,sp,4
 8002c9c:	f800283a 	ret

08002ca0 <SPI_init>:
//variables and data structures
//External variables
extern BYTE usb_task_state;

/* Functions    */
void SPI_init(BYTE sync_mode, BYTE bus_mode, BYTE smp_phase) {
 8002ca0:	defffc04 	addi	sp,sp,-16
 8002ca4:	df000315 	stw	fp,12(sp)
 8002ca8:	df000304 	addi	fp,sp,12
 8002cac:	2807883a 	mov	r3,r5
 8002cb0:	3005883a 	mov	r2,r6
 8002cb4:	e13ffd05 	stb	r4,-12(fp)
 8002cb8:	e0fffe05 	stb	r3,-8(fp)
 8002cbc:	e0bfff05 	stb	r2,-4(fp)
	//Don't need to initialize SPI port, already ready to go with BSP
}
 8002cc0:	0001883a 	nop
 8002cc4:	e037883a 	mov	sp,fp
 8002cc8:	df000017 	ldw	fp,0(sp)
 8002ccc:	dec00104 	addi	sp,sp,4
 8002cd0:	f800283a 	ret

08002cd4 <SPI_wr>:

//writes single byte to MAX3421E via SPI, simultanously reads status register and returns it
BYTE SPI_wr(BYTE data) {
 8002cd4:	defffe04 	addi	sp,sp,-8
 8002cd8:	df000115 	stw	fp,4(sp)
 8002cdc:	df000104 	addi	fp,sp,4
 8002ce0:	2005883a 	mov	r2,r4
 8002ce4:	e0bfff05 	stb	r2,-4(fp)
	//This function is never used by the code, so you do not need to fill it in
}
 8002ce8:	0001883a 	nop
 8002cec:	e037883a 	mov	sp,fp
 8002cf0:	df000017 	ldw	fp,0(sp)
 8002cf4:	dec00104 	addi	sp,sp,4
 8002cf8:	f800283a 	ret

08002cfc <MAXreg_wr>:
//writes register to MAX3421E via SPI
void MAXreg_wr(BYTE reg, BYTE val) {
 8002cfc:	defff804 	addi	sp,sp,-32
 8002d00:	dfc00715 	stw	ra,28(sp)
 8002d04:	df000615 	stw	fp,24(sp)
 8002d08:	df000604 	addi	fp,sp,24
 8002d0c:	2007883a 	mov	r3,r4
 8002d10:	2805883a 	mov	r2,r5
 8002d14:	e0fffe05 	stb	r3,-8(fp)
 8002d18:	e0bfff05 	stb	r2,-4(fp)
	//psuedocode:
	//select MAX3421E (may not be necessary if you are using SPI peripheral)
	//write reg + 2 via SPI
	alt_u8 return_code;
	alt_u8 x[2];
	x[0] = reg+2;
 8002d1c:	e0bffe03 	ldbu	r2,-8(fp)
 8002d20:	10800084 	addi	r2,r2,2
 8002d24:	e0bffd45 	stb	r2,-11(fp)
	x[1] = val;
 8002d28:	e0bfff03 	ldbu	r2,-4(fp)
 8002d2c:	e0bffd85 	stb	r2,-10(fp)
	return_code = alt_avalon_spi_command(SPI0_BASE,0,2,x,0,NULL,0);
 8002d30:	e0bffd44 	addi	r2,fp,-11
 8002d34:	d8000215 	stw	zero,8(sp)
 8002d38:	d8000115 	stw	zero,4(sp)
 8002d3c:	d8000015 	stw	zero,0(sp)
 8002d40:	100f883a 	mov	r7,r2
 8002d44:	01800084 	movi	r6,2
 8002d48:	000b883a 	mov	r5,zero
 8002d4c:	01003004 	movi	r4,192
 8002d50:	80165780 	call	8016578 <alt_avalon_spi_command>
 8002d54:	e0bffd05 	stb	r2,-12(fp)
	//read return code from SPI peripheral (see Intel documentation)
	//if return code < 0 print an error
    if (return_code < 0) {
    	printf("error");
    }
    return;
 8002d58:	0001883a 	nop
	//deselect MAX3421E (may not be necessary if you are using SPI peripheral)
}
 8002d5c:	e037883a 	mov	sp,fp
 8002d60:	dfc00117 	ldw	ra,4(sp)
 8002d64:	df000017 	ldw	fp,0(sp)
 8002d68:	dec00204 	addi	sp,sp,8
 8002d6c:	f800283a 	ret

08002d70 <MAXbytes_wr>:
//multiple-byte write
//returns a pointer to a memory position after last written
BYTE* MAXbytes_wr(BYTE reg, BYTE nbytes, BYTE* data) {
 8002d70:	defff304 	addi	sp,sp,-52
 8002d74:	dfc00c15 	stw	ra,48(sp)
 8002d78:	df000b15 	stw	fp,44(sp)
 8002d7c:	dc000a15 	stw	r16,40(sp)
 8002d80:	df000b04 	addi	fp,sp,44
 8002d84:	201b883a 	mov	r13,r4
 8002d88:	2809883a 	mov	r4,r5
 8002d8c:	e1bffe15 	stw	r6,-8(fp)
 8002d90:	e37ffc05 	stb	r13,-16(fp)
 8002d94:	e13ffd05 	stb	r4,-12(fp)
 8002d98:	d809883a 	mov	r4,sp
 8002d9c:	2021883a 	mov	r16,r4
	//psuedocode:
	//select MAX3421E (may not be necessary if you are using SPI peripheral)
	//write reg + 2 via SPI
	alt_u8 return_code;
	alt_u8 x[nbytes+1];
 8002da0:	e13ffd03 	ldbu	r4,-12(fp)
 8002da4:	21000044 	addi	r4,r4,1
 8002da8:	217fffc4 	addi	r5,r4,-1
 8002dac:	e17ff915 	stw	r5,-28(fp)
 8002db0:	200b883a 	mov	r5,r4
 8002db4:	2817883a 	mov	r11,r5
 8002db8:	0019883a 	mov	r12,zero
 8002dbc:	580ad77a 	srli	r5,r11,29
 8002dc0:	601090fa 	slli	r8,r12,3
 8002dc4:	2a10b03a 	or	r8,r5,r8
 8002dc8:	580e90fa 	slli	r7,r11,3
 8002dcc:	200b883a 	mov	r5,r4
 8002dd0:	2813883a 	mov	r9,r5
 8002dd4:	0015883a 	mov	r10,zero
 8002dd8:	480ad77a 	srli	r5,r9,29
 8002ddc:	500690fa 	slli	r3,r10,3
 8002de0:	28c6b03a 	or	r3,r5,r3
 8002de4:	480490fa 	slli	r2,r9,3
 8002de8:	2005883a 	mov	r2,r4
 8002dec:	108000c4 	addi	r2,r2,3
 8002df0:	1004d0ba 	srli	r2,r2,2
 8002df4:	1085883a 	add	r2,r2,r2
 8002df8:	1085883a 	add	r2,r2,r2
 8002dfc:	d8b7c83a 	sub	sp,sp,r2
 8002e00:	d8800304 	addi	r2,sp,12
 8002e04:	1005883a 	mov	r2,r2
 8002e08:	e0bffa15 	stw	r2,-24(fp)
	x[0] = reg+2;
 8002e0c:	e0bffc03 	ldbu	r2,-16(fp)
 8002e10:	10800084 	addi	r2,r2,2
 8002e14:	1007883a 	mov	r3,r2
 8002e18:	e0bffa17 	ldw	r2,-24(fp)
 8002e1c:	10c00005 	stb	r3,0(r2)
	for (int i = 1; i < nbytes+1; i++){
 8002e20:	00800044 	movi	r2,1
 8002e24:	e0bff815 	stw	r2,-32(fp)
 8002e28:	00000c06 	br	8002e5c <MAXbytes_wr+0xec>
		x[i] = data[i-1];
 8002e2c:	e0bff817 	ldw	r2,-32(fp)
 8002e30:	10bfffc4 	addi	r2,r2,-1
 8002e34:	e0fffe17 	ldw	r3,-8(fp)
 8002e38:	1885883a 	add	r2,r3,r2
 8002e3c:	10c00003 	ldbu	r3,0(r2)
 8002e40:	e13ffa17 	ldw	r4,-24(fp)
 8002e44:	e0bff817 	ldw	r2,-32(fp)
 8002e48:	2085883a 	add	r2,r4,r2
 8002e4c:	10c00005 	stb	r3,0(r2)
	//select MAX3421E (may not be necessary if you are using SPI peripheral)
	//write reg + 2 via SPI
	alt_u8 return_code;
	alt_u8 x[nbytes+1];
	x[0] = reg+2;
	for (int i = 1; i < nbytes+1; i++){
 8002e50:	e0bff817 	ldw	r2,-32(fp)
 8002e54:	10800044 	addi	r2,r2,1
 8002e58:	e0bff815 	stw	r2,-32(fp)
 8002e5c:	e0bffd03 	ldbu	r2,-12(fp)
 8002e60:	10800044 	addi	r2,r2,1
 8002e64:	e0fff817 	ldw	r3,-32(fp)
 8002e68:	18bff016 	blt	r3,r2,8002e2c <__alt_data_end+0xfc002e2c>
		x[i] = data[i-1];
	}
	return_code = alt_avalon_spi_command(SPI0_BASE,0,nbytes+1,x,0,NULL,0);
 8002e6c:	e0bffd03 	ldbu	r2,-12(fp)
 8002e70:	10800044 	addi	r2,r2,1
 8002e74:	1007883a 	mov	r3,r2
 8002e78:	e0bffa17 	ldw	r2,-24(fp)
 8002e7c:	d8000215 	stw	zero,8(sp)
 8002e80:	d8000115 	stw	zero,4(sp)
 8002e84:	d8000015 	stw	zero,0(sp)
 8002e88:	100f883a 	mov	r7,r2
 8002e8c:	180d883a 	mov	r6,r3
 8002e90:	000b883a 	mov	r5,zero
 8002e94:	01003004 	movi	r4,192
 8002e98:	80165780 	call	8016578 <alt_avalon_spi_command>
 8002e9c:	e0bffb05 	stb	r2,-20(fp)
	//if return code < 0  print an error
	 if (return_code < 0) {
	    	printf("error");
	}
	//deselect MAX3421E (may not be necessary if you are using SPI peripheral)
	return (data + nbytes);
 8002ea0:	e0bffd03 	ldbu	r2,-12(fp)
 8002ea4:	e0fffe17 	ldw	r3,-8(fp)
 8002ea8:	1885883a 	add	r2,r3,r2
 8002eac:	8037883a 	mov	sp,r16

}
 8002eb0:	e6ffff04 	addi	sp,fp,-4
 8002eb4:	dfc00217 	ldw	ra,8(sp)
 8002eb8:	df000117 	ldw	fp,4(sp)
 8002ebc:	dc000017 	ldw	r16,0(sp)
 8002ec0:	dec00304 	addi	sp,sp,12
 8002ec4:	f800283a 	ret

08002ec8 <MAXreg_rd>:

//reads register from MAX3421E via SPI
BYTE MAXreg_rd(BYTE reg) {
 8002ec8:	defff904 	addi	sp,sp,-28
 8002ecc:	dfc00615 	stw	ra,24(sp)
 8002ed0:	df000515 	stw	fp,20(sp)
 8002ed4:	df000504 	addi	fp,sp,20
 8002ed8:	2005883a 	mov	r2,r4
 8002edc:	e0bfff05 	stb	r2,-4(fp)
	//read val via SPI
	//read return code from SPI peripheral (see Intel documentation)
	//if return code < 0 print an error
	alt_u8 return_code;
	alt_u8 read_data[1];
	return_code = alt_avalon_spi_command(SPI0_BASE,0,1,&reg,1,read_data,0);
 8002ee0:	e0ffff04 	addi	r3,fp,-4
 8002ee4:	d8000215 	stw	zero,8(sp)
 8002ee8:	e0bffe44 	addi	r2,fp,-7
 8002eec:	d8800115 	stw	r2,4(sp)
 8002ef0:	00800044 	movi	r2,1
 8002ef4:	d8800015 	stw	r2,0(sp)
 8002ef8:	180f883a 	mov	r7,r3
 8002efc:	01800044 	movi	r6,1
 8002f00:	000b883a 	mov	r5,zero
 8002f04:	01003004 	movi	r4,192
 8002f08:	80165780 	call	8016578 <alt_avalon_spi_command>
 8002f0c:	e0bffe05 	stb	r2,-8(fp)
	//return val

	if (return_code < 0) {
		    	printf("error");
		    }
	return read_data[0];
 8002f10:	e0bffe43 	ldbu	r2,-7(fp)
}
 8002f14:	e037883a 	mov	sp,fp
 8002f18:	dfc00117 	ldw	ra,4(sp)
 8002f1c:	df000017 	ldw	fp,0(sp)
 8002f20:	dec00204 	addi	sp,sp,8
 8002f24:	f800283a 	ret

08002f28 <MAXbytes_rd>:
//multiple-byte write
//returns a pointer to a memory position after last written
BYTE* MAXbytes_rd(BYTE reg, BYTE nbytes, BYTE* data) {
 8002f28:	defff704 	addi	sp,sp,-36
 8002f2c:	dfc00815 	stw	ra,32(sp)
 8002f30:	df000715 	stw	fp,28(sp)
 8002f34:	df000704 	addi	fp,sp,28
 8002f38:	2007883a 	mov	r3,r4
 8002f3c:	2805883a 	mov	r2,r5
 8002f40:	e1bfff15 	stw	r6,-4(fp)
 8002f44:	e0fffd05 	stb	r3,-12(fp)
 8002f48:	e0bffe05 	stb	r2,-8(fp)
	//select MAX3421E (may not be necessary if you are using SPI peripheral)
	//write reg via SPI
	//read data[n] from SPI, where n goes from 0 to nbytes-1
	alt_u8 return_code;
    alt_u8 x[1];
    x[0] = reg;
 8002f4c:	e0bffd03 	ldbu	r2,-12(fp)
 8002f50:	e0bffc45 	stb	r2,-15(fp)
	return_code = alt_avalon_spi_command(SPI0_BASE,0,1,x,nbytes,data,0);
 8002f54:	e0bffe03 	ldbu	r2,-8(fp)
 8002f58:	e13ffc44 	addi	r4,fp,-15
 8002f5c:	d8000215 	stw	zero,8(sp)
 8002f60:	e0ffff17 	ldw	r3,-4(fp)
 8002f64:	d8c00115 	stw	r3,4(sp)
 8002f68:	d8800015 	stw	r2,0(sp)
 8002f6c:	200f883a 	mov	r7,r4
 8002f70:	01800044 	movi	r6,1
 8002f74:	000b883a 	mov	r5,zero
 8002f78:	01003004 	movi	r4,192
 8002f7c:	80165780 	call	8016578 <alt_avalon_spi_command>
 8002f80:	e0bffc05 	stb	r2,-16(fp)
	if (return_code < 0) {
			    	printf("error");
			    }
	//deselect MAX3421E (may not be necessary if you are using SPI peripheral)
	//return (data + nbytes);
	return (data+nbytes);
 8002f84:	e0bffe03 	ldbu	r2,-8(fp)
 8002f88:	e0ffff17 	ldw	r3,-4(fp)
 8002f8c:	1885883a 	add	r2,r3,r2
}
 8002f90:	e037883a 	mov	sp,fp
 8002f94:	dfc00117 	ldw	ra,4(sp)
 8002f98:	df000017 	ldw	fp,0(sp)
 8002f9c:	dec00204 	addi	sp,sp,8
 8002fa0:	f800283a 	ret

08002fa4 <MAX3421E_reset>:
/* reset MAX3421E using chip reset bit. SPI configuration is not affected   */
void MAX3421E_reset(void) {
 8002fa4:	defffd04 	addi	sp,sp,-12
 8002fa8:	dfc00215 	stw	ra,8(sp)
 8002fac:	df000115 	stw	fp,4(sp)
 8002fb0:	df000104 	addi	fp,sp,4
	//hardware reset, then software reset
	IOWR_ALTERA_AVALON_PIO_DATA(USB_RST_BASE, 0);
 8002fb4:	0007883a 	mov	r3,zero
 8002fb8:	00806404 	movi	r2,400
 8002fbc:	10c00035 	stwio	r3,0(r2)
	usleep(1000000);
 8002fc0:	010003f4 	movhi	r4,15
 8002fc4:	21109004 	addi	r4,r4,16960
 8002fc8:	80158d40 	call	80158d4 <usleep>
	IOWR_ALTERA_AVALON_PIO_DATA(USB_RST_BASE, 1);
 8002fcc:	00c00044 	movi	r3,1
 8002fd0:	00806404 	movi	r2,400
 8002fd4:	10c00035 	stwio	r3,0(r2)
	BYTE tmp = 0;
 8002fd8:	e03fff05 	stb	zero,-4(fp)
	MAXreg_wr( rUSBCTL, bmCHIPRES);      //Chip reset. This stops the oscillator
 8002fdc:	01400804 	movi	r5,32
 8002fe0:	01001e04 	movi	r4,120
 8002fe4:	8002cfc0 	call	8002cfc <MAXreg_wr>
	MAXreg_wr( rUSBCTL, 0x00);                          //Remove the reset
 8002fe8:	000b883a 	mov	r5,zero
 8002fec:	01001e04 	movi	r4,120
 8002ff0:	8002cfc0 	call	8002cfc <MAXreg_wr>
	while (!(MAXreg_rd( rUSBIRQ) & bmOSCOKIRQ)) { //wait until the PLL stabilizes
 8002ff4:	00000806 	br	8003018 <MAX3421E_reset+0x74>
		tmp++;                                      //timeout after 256 attempts
 8002ff8:	e0bfff03 	ldbu	r2,-4(fp)
 8002ffc:	10800044 	addi	r2,r2,1
 8003000:	e0bfff05 	stb	r2,-4(fp)
		if (tmp == 0) {
 8003004:	e0bfff03 	ldbu	r2,-4(fp)
 8003008:	1000031e 	bne	r2,zero,8003018 <MAX3421E_reset+0x74>
			printf("reset timeout!");
 800300c:	01020074 	movhi	r4,2049
 8003010:	211ef104 	addi	r4,r4,31684
 8003014:	80045d40 	call	80045d4 <printf>
	usleep(1000000);
	IOWR_ALTERA_AVALON_PIO_DATA(USB_RST_BASE, 1);
	BYTE tmp = 0;
	MAXreg_wr( rUSBCTL, bmCHIPRES);      //Chip reset. This stops the oscillator
	MAXreg_wr( rUSBCTL, 0x00);                          //Remove the reset
	while (!(MAXreg_rd( rUSBIRQ) & bmOSCOKIRQ)) { //wait until the PLL stabilizes
 8003018:	01001a04 	movi	r4,104
 800301c:	8002ec80 	call	8002ec8 <MAXreg_rd>
 8003020:	10803fcc 	andi	r2,r2,255
 8003024:	1080004c 	andi	r2,r2,1
 8003028:	103ff326 	beq	r2,zero,8002ff8 <__alt_data_end+0xfc002ff8>
		tmp++;                                      //timeout after 256 attempts
		if (tmp == 0) {
			printf("reset timeout!");
		}
	}
}
 800302c:	0001883a 	nop
 8003030:	e037883a 	mov	sp,fp
 8003034:	dfc00117 	ldw	ra,4(sp)
 8003038:	df000017 	ldw	fp,0(sp)
 800303c:	dec00204 	addi	sp,sp,8
 8003040:	f800283a 	ret

08003044 <Vbus_power>:
/* turn USB power on/off                                                */
/* ON pin of VBUS switch (MAX4793 or similar) is connected to GPOUT7    */
/* OVERLOAD pin of Vbus switch is connected to GPIN7                    */
/* OVERLOAD state low. NO OVERLOAD or VBUS OFF state high.              */
BOOL Vbus_power(BOOL action) {
 8003044:	defffe04 	addi	sp,sp,-8
 8003048:	df000115 	stw	fp,4(sp)
 800304c:	df000104 	addi	fp,sp,4
 8003050:	e13fff15 	stw	r4,-4(fp)
	// power on/off successful
	return (1);
 8003054:	00800044 	movi	r2,1
}
 8003058:	e037883a 	mov	sp,fp
 800305c:	df000017 	ldw	fp,0(sp)
 8003060:	dec00104 	addi	sp,sp,4
 8003064:	f800283a 	ret

08003068 <MAX_busprobe>:

/* probe bus to determine device presense and speed */
void MAX_busprobe(void) {
 8003068:	defffd04 	addi	sp,sp,-12
 800306c:	dfc00215 	stw	ra,8(sp)
 8003070:	df000115 	stw	fp,4(sp)
 8003074:	df000104 	addi	fp,sp,4
	BYTE bus_sample;

//  MAXreg_wr(rHCTL,bmSAMPLEBUS);
	bus_sample = MAXreg_rd( rHRSL);            //Get J,K status
 8003078:	01003e04 	movi	r4,248
 800307c:	8002ec80 	call	8002ec8 <MAXreg_rd>
 8003080:	e0bfff05 	stb	r2,-4(fp)
	bus_sample &= ( bmJSTATUS | bmKSTATUS);      //zero the rest of the byte
 8003084:	e0ffff03 	ldbu	r3,-4(fp)
 8003088:	00bff004 	movi	r2,-64
 800308c:	1884703a 	and	r2,r3,r2
 8003090:	e0bfff05 	stb	r2,-4(fp)

	switch (bus_sample) {                   //start full-speed or low-speed host
 8003094:	e0bfff03 	ldbu	r2,-4(fp)
 8003098:	10c01020 	cmpeqi	r3,r2,64
 800309c:	1800221e 	bne	r3,zero,8003128 <MAX_busprobe+0xc0>
 80030a0:	10c01048 	cmpgei	r3,r2,65
 80030a4:	1800021e 	bne	r3,zero,80030b0 <MAX_busprobe+0x48>
 80030a8:	10003b26 	beq	r2,zero,8003198 <MAX_busprobe+0x130>
			MAXreg_wr( rMODE, MODE_FS_HOST); //start full-speed host
			usb_task_state = ( USB_DETACHED_SUBSTATE_WAIT_FOR_DEVICE);
		}
		break;
	} //end switch( bus_sample )
}
 80030ac:	00004a06 	br	80031d8 <MAX_busprobe+0x170>

//  MAXreg_wr(rHCTL,bmSAMPLEBUS);
	bus_sample = MAXreg_rd( rHRSL);            //Get J,K status
	bus_sample &= ( bmJSTATUS | bmKSTATUS);      //zero the rest of the byte

	switch (bus_sample) {                   //start full-speed or low-speed host
 80030b0:	10c02020 	cmpeqi	r3,r2,128
 80030b4:	1800031e 	bne	r3,zero,80030c4 <MAX_busprobe+0x5c>
 80030b8:	10803020 	cmpeqi	r2,r2,192
 80030bc:	1000331e 	bne	r2,zero,800318c <MAX_busprobe+0x124>
			MAXreg_wr( rMODE, MODE_FS_HOST); //start full-speed host
			usb_task_state = ( USB_DETACHED_SUBSTATE_WAIT_FOR_DEVICE);
		}
		break;
	} //end switch( bus_sample )
}
 80030c0:	00004506 	br	80031d8 <MAX_busprobe+0x170>
	bus_sample &= ( bmJSTATUS | bmKSTATUS);      //zero the rest of the byte

	switch (bus_sample) {                   //start full-speed or low-speed host
	case ( bmJSTATUS):
		/*kludgy*/
		if (usb_task_state != USB_ATTACHED_SUBSTATE_WAIT_RESET_COMPLETE) { //bus reset causes connection detect interrupt
 80030c4:	d0a00403 	ldbu	r2,-32752(gp)
 80030c8:	10803fcc 	andi	r2,r2,255
 80030cc:	108004e0 	cmpeqi	r2,r2,19
 80030d0:	10003e1e 	bne	r2,zero,80031cc <MAX_busprobe+0x164>
			if (!(MAXreg_rd( rMODE) & bmLOWSPEED)) {
 80030d4:	01003604 	movi	r4,216
 80030d8:	8002ec80 	call	8002ec8 <MAXreg_rd>
 80030dc:	10803fcc 	andi	r2,r2,255
 80030e0:	1080008c 	andi	r2,r2,2
 80030e4:	1000071e 	bne	r2,zero,8003104 <MAX_busprobe+0x9c>
				MAXreg_wr( rMODE, MODE_FS_HOST);         //start full-speed host
 80030e8:	01403244 	movi	r5,201
 80030ec:	01003604 	movi	r4,216
 80030f0:	8002cfc0 	call	8002cfc <MAXreg_wr>
				printf("Starting in full speed\n");
 80030f4:	01020074 	movhi	r4,2049
 80030f8:	211ef504 	addi	r4,r4,31700
 80030fc:	80046d00 	call	80046d0 <puts>
 8003100:	00000606 	br	800311c <MAX_busprobe+0xb4>
			} else {
				MAXreg_wr( rMODE, MODE_LS_HOST);    //start low-speed host
 8003104:	014032c4 	movi	r5,203
 8003108:	01003604 	movi	r4,216
 800310c:	8002cfc0 	call	8002cfc <MAXreg_wr>
				printf("Starting in low speed\n");
 8003110:	01020074 	movhi	r4,2049
 8003114:	211efb04 	addi	r4,r4,31724
 8003118:	80046d00 	call	80046d0 <puts>
			}
			usb_task_state = ( USB_STATE_ATTACHED); //signal usb state machine to start attachment sequence
 800311c:	00800404 	movi	r2,16
 8003120:	d0a00405 	stb	r2,-32752(gp)
		}
		break;
 8003124:	00002906 	br	80031cc <MAX_busprobe+0x164>
	case ( bmKSTATUS):
		if (usb_task_state != USB_ATTACHED_SUBSTATE_WAIT_RESET_COMPLETE) { //bus reset causes connection detect interrupt
 8003128:	d0a00403 	ldbu	r2,-32752(gp)
 800312c:	10803fcc 	andi	r2,r2,255
 8003130:	108004e0 	cmpeqi	r2,r2,19
 8003134:	1000271e 	bne	r2,zero,80031d4 <MAX_busprobe+0x16c>
			if (!(MAXreg_rd( rMODE) & bmLOWSPEED)) {
 8003138:	01003604 	movi	r4,216
 800313c:	8002ec80 	call	8002ec8 <MAXreg_rd>
 8003140:	10803fcc 	andi	r2,r2,255
 8003144:	1080008c 	andi	r2,r2,2
 8003148:	1000071e 	bne	r2,zero,8003168 <MAX_busprobe+0x100>
				MAXreg_wr( rMODE, MODE_LS_HOST);   //start low-speed host
 800314c:	014032c4 	movi	r5,203
 8003150:	01003604 	movi	r4,216
 8003154:	8002cfc0 	call	8002cfc <MAXreg_wr>
				printf("Starting in low speed\n");
 8003158:	01020074 	movhi	r4,2049
 800315c:	211efb04 	addi	r4,r4,31724
 8003160:	80046d00 	call	80046d0 <puts>
 8003164:	00000606 	br	8003180 <MAX_busprobe+0x118>
			} else {
				MAXreg_wr( rMODE, MODE_FS_HOST);         //start full-speed host
 8003168:	01403244 	movi	r5,201
 800316c:	01003604 	movi	r4,216
 8003170:	8002cfc0 	call	8002cfc <MAXreg_wr>
				printf("Starting in full speed\n");
 8003174:	01020074 	movhi	r4,2049
 8003178:	211ef504 	addi	r4,r4,31700
 800317c:	80046d00 	call	80046d0 <puts>
			}
			usb_task_state = ( USB_STATE_ATTACHED); //signal usb state machine to start attachment sequence
 8003180:	00800404 	movi	r2,16
 8003184:	d0a00405 	stb	r2,-32752(gp)
		}
		break;
 8003188:	00001206 	br	80031d4 <MAX_busprobe+0x16c>
	case ( bmSE1):              //illegal state
		usb_task_state = ( USB_DETACHED_SUBSTATE_ILLEGAL);
 800318c:	00800104 	movi	r2,4
 8003190:	d0a00405 	stb	r2,-32752(gp)
		break;
 8003194:	00001006 	br	80031d8 <MAX_busprobe+0x170>
	case ( bmSE0):              //disconnected state
		if (!((usb_task_state & USB_STATE_MASK) == USB_STATE_DETACHED)) //if we came here from other than detached state
 8003198:	d0a00403 	ldbu	r2,-32752(gp)
 800319c:	10803fcc 	andi	r2,r2,255
 80031a0:	10803c0c 	andi	r2,r2,240
 80031a4:	10000326 	beq	r2,zero,80031b4 <MAX_busprobe+0x14c>
			usb_task_state = ( USB_DETACHED_SUBSTATE_INITIALIZE); //clear device data structures
 80031a8:	00800044 	movi	r2,1
 80031ac:	d0a00405 	stb	r2,-32752(gp)
		else {
			MAXreg_wr( rMODE, MODE_FS_HOST); //start full-speed host
			usb_task_state = ( USB_DETACHED_SUBSTATE_WAIT_FOR_DEVICE);
		}
		break;
 80031b0:	00000906 	br	80031d8 <MAX_busprobe+0x170>
		break;
	case ( bmSE0):              //disconnected state
		if (!((usb_task_state & USB_STATE_MASK) == USB_STATE_DETACHED)) //if we came here from other than detached state
			usb_task_state = ( USB_DETACHED_SUBSTATE_INITIALIZE); //clear device data structures
		else {
			MAXreg_wr( rMODE, MODE_FS_HOST); //start full-speed host
 80031b4:	01403244 	movi	r5,201
 80031b8:	01003604 	movi	r4,216
 80031bc:	8002cfc0 	call	8002cfc <MAXreg_wr>
			usb_task_state = ( USB_DETACHED_SUBSTATE_WAIT_FOR_DEVICE);
 80031c0:	008000c4 	movi	r2,3
 80031c4:	d0a00405 	stb	r2,-32752(gp)
		}
		break;
 80031c8:	00000306 	br	80031d8 <MAX_busprobe+0x170>
				MAXreg_wr( rMODE, MODE_LS_HOST);    //start low-speed host
				printf("Starting in low speed\n");
			}
			usb_task_state = ( USB_STATE_ATTACHED); //signal usb state machine to start attachment sequence
		}
		break;
 80031cc:	0001883a 	nop
 80031d0:	00000106 	br	80031d8 <MAX_busprobe+0x170>
				MAXreg_wr( rMODE, MODE_FS_HOST);         //start full-speed host
				printf("Starting in full speed\n");
			}
			usb_task_state = ( USB_STATE_ATTACHED); //signal usb state machine to start attachment sequence
		}
		break;
 80031d4:	0001883a 	nop
			MAXreg_wr( rMODE, MODE_FS_HOST); //start full-speed host
			usb_task_state = ( USB_DETACHED_SUBSTATE_WAIT_FOR_DEVICE);
		}
		break;
	} //end switch( bus_sample )
}
 80031d8:	0001883a 	nop
 80031dc:	e037883a 	mov	sp,fp
 80031e0:	dfc00117 	ldw	ra,4(sp)
 80031e4:	df000017 	ldw	fp,0(sp)
 80031e8:	dec00204 	addi	sp,sp,8
 80031ec:	f800283a 	ret

080031f0 <MAX3421E_init>:
/* MAX3421E initialization after power-on   */
void MAX3421E_init(void) {
 80031f0:	defffe04 	addi	sp,sp,-8
 80031f4:	dfc00115 	stw	ra,4(sp)
 80031f8:	df000015 	stw	fp,0(sp)
 80031fc:	d839883a 	mov	fp,sp
	/* Configure full-duplex SPI, interrupt pulse   */
	MAXreg_wr( rPINCTL, (bmFDUPSPI + bmINTLEVEL + bmGPXB)); //Full-duplex SPI, level interrupt, GPX
 8003200:	01400684 	movi	r5,26
 8003204:	01002204 	movi	r4,136
 8003208:	8002cfc0 	call	8002cfc <MAXreg_wr>
	MAX3421E_reset();                                //stop/start the oscillator
 800320c:	8002fa40 	call	8002fa4 <MAX3421E_reset>
	/* configure power switch   */
	Vbus_power( OFF);                                      //turn Vbus power off
 8003210:	0009883a 	mov	r4,zero
 8003214:	80030440 	call	8003044 <Vbus_power>
	MAXreg_wr( rGPINIEN, bmGPINIEN7); //enable interrupt on GPIN7 (power switch overload flag)
 8003218:	01402004 	movi	r5,128
 800321c:	01002e04 	movi	r4,184
 8003220:	8002cfc0 	call	8002cfc <MAXreg_wr>
	Vbus_power( ON);
 8003224:	01000044 	movi	r4,1
 8003228:	80030440 	call	8003044 <Vbus_power>
	/* configure host operation */
	MAXreg_wr( rMODE, bmDPPULLDN | bmDMPULLDN | bmHOST | bmSEPIRQ); // set pull-downs, SOF, Host, Separate GPIN IRQ on GPX
 800322c:	01403444 	movi	r5,209
 8003230:	01003604 	movi	r4,216
 8003234:	8002cfc0 	call	8002cfc <MAXreg_wr>
	//MAXreg_wr( rHIEN, bmFRAMEIE|bmCONDETIE|bmBUSEVENTIE );                      // enable SOF, connection detection, bus event IRQs
	MAXreg_wr( rHIEN, bmCONDETIE);                        //connection detection
 8003238:	01400804 	movi	r5,32
 800323c:	01003404 	movi	r4,208
 8003240:	8002cfc0 	call	8002cfc <MAXreg_wr>
	/* HXFRDNIRQ is checked in Dispatch packet function */
	MAXreg_wr(rHCTL, bmSAMPLEBUS);        // update the JSTATUS and KSTATUS bits
 8003244:	01400104 	movi	r5,4
 8003248:	01003a04 	movi	r4,232
 800324c:	8002cfc0 	call	8002cfc <MAXreg_wr>
	MAX_busprobe();                             //check if anything is connected
 8003250:	80030680 	call	8003068 <MAX_busprobe>
	MAXreg_wr( rHIRQ, bmCONDETIRQ); //clear connection detect interrupt                 
 8003254:	01400804 	movi	r5,32
 8003258:	01003204 	movi	r4,200
 800325c:	8002cfc0 	call	8002cfc <MAXreg_wr>
	MAXreg_wr( rCPUCTL, 0x01);                            //enable interrupt pin
 8003260:	01400044 	movi	r5,1
 8003264:	01002004 	movi	r4,128
 8003268:	8002cfc0 	call	8002cfc <MAXreg_wr>
}
 800326c:	0001883a 	nop
 8003270:	e037883a 	mov	sp,fp
 8003274:	dfc00117 	ldw	ra,4(sp)
 8003278:	df000017 	ldw	fp,0(sp)
 800327c:	dec00204 	addi	sp,sp,8
 8003280:	f800283a 	ret

08003284 <MAX3421E_Task>:

/* MAX3421 state change task and interrupt handler */
void MAX3421E_Task(void) {
 8003284:	defffe04 	addi	sp,sp,-8
 8003288:	dfc00115 	stw	ra,4(sp)
 800328c:	df000015 	stw	fp,0(sp)
 8003290:	d839883a 	mov	fp,sp
	if ( IORD_ALTERA_AVALON_PIO_DATA(USB_IRQ_BASE) == 0) {
 8003294:	00805404 	movi	r2,336
 8003298:	10800037 	ldwio	r2,0(r2)
 800329c:	1000041e 	bne	r2,zero,80032b0 <MAX3421E_Task+0x2c>
		printf("MAX interrupt\n\r");
 80032a0:	01020074 	movhi	r4,2049
 80032a4:	211f0104 	addi	r4,r4,31748
 80032a8:	80045d40 	call	80045d4 <printf>
		MaxIntHandler();
 80032ac:	80032e80 	call	80032e8 <MaxIntHandler>
	}
	if ( IORD_ALTERA_AVALON_PIO_DATA(USB_GPX_BASE) == 1) {
 80032b0:	00806804 	movi	r2,416
 80032b4:	10800037 	ldwio	r2,0(r2)
 80032b8:	10800058 	cmpnei	r2,r2,1
 80032bc:	1000041e 	bne	r2,zero,80032d0 <MAX3421E_Task+0x4c>
		printf("GPX interrupt\n\r");
 80032c0:	01020074 	movhi	r4,2049
 80032c4:	211f0504 	addi	r4,r4,31764
 80032c8:	80045d40 	call	80045d4 <printf>
		MaxGpxHandler();
 80032cc:	80033b40 	call	80033b4 <MaxGpxHandler>
	}
}
 80032d0:	0001883a 	nop
 80032d4:	e037883a 	mov	sp,fp
 80032d8:	dfc00117 	ldw	ra,4(sp)
 80032dc:	df000017 	ldw	fp,0(sp)
 80032e0:	dec00204 	addi	sp,sp,8
 80032e4:	f800283a 	ret

080032e8 <MaxIntHandler>:

void MaxIntHandler(void) {
 80032e8:	defffd04 	addi	sp,sp,-12
 80032ec:	dfc00215 	stw	ra,8(sp)
 80032f0:	df000115 	stw	fp,4(sp)
 80032f4:	df000104 	addi	fp,sp,4
	BYTE HIRQ;
	BYTE HIRQ_sendback = 0x00;
 80032f8:	e03fff05 	stb	zero,-4(fp)
	HIRQ = MAXreg_rd( rHIRQ);                  //determine interrupt source
 80032fc:	01003204 	movi	r4,200
 8003300:	8002ec80 	call	8002ec8 <MAXreg_rd>
 8003304:	e0bfff45 	stb	r2,-3(fp)
	printf("IRQ: %x\n", HIRQ);
 8003308:	e0bfff43 	ldbu	r2,-3(fp)
 800330c:	100b883a 	mov	r5,r2
 8003310:	01020074 	movhi	r4,2049
 8003314:	211f0904 	addi	r4,r4,31780
 8003318:	80045d40 	call	80045d4 <printf>
	if (HIRQ & bmFRAMEIRQ) {                   //->1ms SOF interrupt handler
 800331c:	e0bfff43 	ldbu	r2,-3(fp)
 8003320:	1080100c 	andi	r2,r2,64
 8003324:	10000326 	beq	r2,zero,8003334 <MaxIntHandler+0x4c>
		HIRQ_sendback |= bmFRAMEIRQ;
 8003328:	e0bfff03 	ldbu	r2,-4(fp)
 800332c:	10801014 	ori	r2,r2,64
 8003330:	e0bfff05 	stb	r2,-4(fp)
	}                   //end FRAMEIRQ handling

	if (HIRQ & bmCONDETIRQ) {
 8003334:	e0bfff43 	ldbu	r2,-3(fp)
 8003338:	1080080c 	andi	r2,r2,32
 800333c:	10000426 	beq	r2,zero,8003350 <MaxIntHandler+0x68>
		MAX_busprobe();
 8003340:	80030680 	call	8003068 <MAX_busprobe>
		HIRQ_sendback |= bmCONDETIRQ;      //set sendback to 1 to clear register
 8003344:	e0bfff03 	ldbu	r2,-4(fp)
 8003348:	10800814 	ori	r2,r2,32
 800334c:	e0bfff05 	stb	r2,-4(fp)
	}
	if (HIRQ & bmSNDBAVIRQ) //if the send buffer is clear (previous transfer completed without issue)
 8003350:	e0bfff43 	ldbu	r2,-3(fp)
 8003354:	1080020c 	andi	r2,r2,8
 8003358:	10000326 	beq	r2,zero,8003368 <MaxIntHandler+0x80>
	{
		MAXreg_wr(rSNDBC, 0x00);//clear the send buffer (not really necessary, but clears interrupt)
 800335c:	000b883a 	mov	r5,zero
 8003360:	01000e04 	movi	r4,56
 8003364:	8002cfc0 	call	8002cfc <MAXreg_wr>
	}
	if (HIRQ & bmBUSEVENTIRQ) {           //bus event is either reset or suspend
 8003368:	e0bfff43 	ldbu	r2,-3(fp)
 800336c:	1080004c 	andi	r2,r2,1
 8003370:	10000626 	beq	r2,zero,800338c <MaxIntHandler+0xa4>
		usb_task_state++;                       //advance USB task state machine
 8003374:	d0a00403 	ldbu	r2,-32752(gp)
 8003378:	10800044 	addi	r2,r2,1
 800337c:	d0a00405 	stb	r2,-32752(gp)
		HIRQ_sendback |= bmBUSEVENTIRQ;
 8003380:	e0bfff03 	ldbu	r2,-4(fp)
 8003384:	10800054 	ori	r2,r2,1
 8003388:	e0bfff05 	stb	r2,-4(fp)
	}
	/* End HIRQ interrupts handling, clear serviced IRQs    */
	MAXreg_wr( rHIRQ, HIRQ_sendback); //write '1' to CONDETIRQ to ack bus state change
 800338c:	e0bfff03 	ldbu	r2,-4(fp)
 8003390:	100b883a 	mov	r5,r2
 8003394:	01003204 	movi	r4,200
 8003398:	8002cfc0 	call	8002cfc <MAXreg_wr>
}
 800339c:	0001883a 	nop
 80033a0:	e037883a 	mov	sp,fp
 80033a4:	dfc00117 	ldw	ra,4(sp)
 80033a8:	df000017 	ldw	fp,0(sp)
 80033ac:	dec00204 	addi	sp,sp,8
 80033b0:	f800283a 	ret

080033b4 <MaxGpxHandler>:

void MaxGpxHandler(void) {
 80033b4:	defffd04 	addi	sp,sp,-12
 80033b8:	dfc00215 	stw	ra,8(sp)
 80033bc:	df000115 	stw	fp,4(sp)
 80033c0:	df000104 	addi	fp,sp,4
	BYTE GPINIRQ;
	GPINIRQ = MAXreg_rd( rGPINIRQ);            //read both IRQ registers
 80033c4:	01002c04 	movi	r4,176
 80033c8:	8002ec80 	call	8002ec8 <MAXreg_rd>
 80033cc:	e0bfff05 	stb	r2,-4(fp)
}
 80033d0:	0001883a 	nop
 80033d4:	e037883a 	mov	sp,fp
 80033d8:	dfc00117 	ldw	ra,4(sp)
 80033dc:	df000017 	ldw	fp,0(sp)
 80033e0:	dec00204 	addi	sp,sp,8
 80033e4:	f800283a 	ret

080033e8 <XferCtrlReq>:
/* depending on request. Actual requests are defined as macros                                                                                      */
/* return codes:                */
/* 00       =   success         */
/* 01-0f    =   non-zero HRSLT  */
BYTE XferCtrlReq( BYTE addr, BYTE ep, BYTE bmReqType, BYTE bRequest, BYTE wValLo, BYTE wValHi, WORD wInd, WORD nbytes, BYTE* dataptr )
{
 80033e8:	defff104 	addi	sp,sp,-60
 80033ec:	dfc00e15 	stw	ra,56(sp)
 80033f0:	df000d15 	stw	fp,52(sp)
 80033f4:	df000d04 	addi	fp,sp,52
 80033f8:	2015883a 	mov	r10,r4
 80033fc:	2813883a 	mov	r9,r5
 8003400:	3011883a 	mov	r8,r6
 8003404:	380d883a 	mov	r6,r7
 8003408:	e1400217 	ldw	r5,8(fp)
 800340c:	e1000317 	ldw	r4,12(fp)
 8003410:	e0c00417 	ldw	r3,16(fp)
 8003414:	e0800517 	ldw	r2,20(fp)
 8003418:	e2bff805 	stb	r10,-32(fp)
 800341c:	e27ff905 	stb	r9,-28(fp)
 8003420:	e23ffa05 	stb	r8,-24(fp)
 8003424:	e1bffb05 	stb	r6,-20(fp)
 8003428:	e17ffc05 	stb	r5,-16(fp)
 800342c:	e13ffd05 	stb	r4,-12(fp)
 8003430:	e0fffe0d 	sth	r3,-8(fp)
 8003434:	e0bfff0d 	sth	r2,-4(fp)
 BOOL direction = FALSE;        //request direction, IN or OUT
 8003438:	e03ff415 	stw	zero,-48(fp)
 BYTE datastage = 1; //request data stage present or absent
 800343c:	00800044 	movi	r2,1
 8003440:	e0bff505 	stb	r2,-44(fp)
 BYTE rcode;
 SETUP_PKT setup_pkt;
    if( dataptr == NULL ) {
 8003444:	e0800617 	ldw	r2,24(fp)
 8003448:	1000011e 	bne	r2,zero,8003450 <XferCtrlReq+0x68>
        datastage = 0;
 800344c:	e03ff505 	stb	zero,-44(fp)
    }
    MAXreg_wr( rPERADDR, addr );                    //set peripheral address
 8003450:	e0bff803 	ldbu	r2,-32(fp)
 8003454:	100b883a 	mov	r5,r2
 8003458:	01003804 	movi	r4,224
 800345c:	8002cfc0 	call	8002cfc <MAXreg_wr>
    /* fill in setup packet */
    if( bmReqType & 0x80 ) {
 8003460:	e0bffa03 	ldbu	r2,-24(fp)
 8003464:	10803fcc 	andi	r2,r2,255
 8003468:	1080201c 	xori	r2,r2,128
 800346c:	10bfe004 	addi	r2,r2,-128
 8003470:	1000020e 	bge	r2,zero,800347c <XferCtrlReq+0x94>
        direction = TRUE;                   		//determine request direction
 8003474:	00800044 	movi	r2,1
 8003478:	e0bff415 	stw	r2,-48(fp)
    }
    /* fill in setup packet */
    setup_pkt.ReqType_u.bmRequestType = bmReqType;
 800347c:	e0bffa03 	ldbu	r2,-24(fp)
 8003480:	e0bff585 	stb	r2,-42(fp)
    setup_pkt.bRequest = bRequest;
 8003484:	e0bffb03 	ldbu	r2,-20(fp)
 8003488:	e0bff5c5 	stb	r2,-41(fp)
    setup_pkt.wVal_u.wValueLo = wValLo;
 800348c:	e0bffc03 	ldbu	r2,-16(fp)
 8003490:	e0bff605 	stb	r2,-40(fp)
    setup_pkt.wVal_u.wValueHi = wValHi;
 8003494:	e0bffd03 	ldbu	r2,-12(fp)
 8003498:	e0bff645 	stb	r2,-39(fp)
    setup_pkt.wIndex = wInd;
 800349c:	e0bffe0b 	ldhu	r2,-8(fp)
 80034a0:	e0bff68d 	sth	r2,-38(fp)
    setup_pkt.wLength = nbytes;
 80034a4:	e0bfff0b 	ldhu	r2,-4(fp)
 80034a8:	e0bff70d 	sth	r2,-36(fp)
    MAXbytes_wr( rSUDFIFO, 8, (BYTE *)&setup_pkt );     //transfer to setup packet FIFO
 80034ac:	e0bff584 	addi	r2,fp,-42
 80034b0:	100d883a 	mov	r6,r2
 80034b4:	01400204 	movi	r5,8
 80034b8:	01000804 	movi	r4,32
 80034bc:	8002d700 	call	8002d70 <MAXbytes_wr>
    rcode = XferDispatchPkt( tokSETUP, ep );            //dispatch packet
 80034c0:	e0bff903 	ldbu	r2,-28(fp)
 80034c4:	100b883a 	mov	r5,r2
 80034c8:	01000404 	movi	r4,16
 80034cc:	80036900 	call	8003690 <XferDispatchPkt>
 80034d0:	e0bff545 	stb	r2,-43(fp)
    if( rcode ) {                                       //return HRSLT if not zero
 80034d4:	e0bff543 	ldbu	r2,-43(fp)
 80034d8:	10000226 	beq	r2,zero,80034e4 <XferCtrlReq+0xfc>
        return( rcode );
 80034dc:	e0bff543 	ldbu	r2,-43(fp)
 80034e0:	00000f06 	br	8003520 <XferCtrlReq+0x138>
    }
    rcode = ctrl_xfers[ datastage ]( addr, ep, nbytes, dataptr, direction );    //call data stage or no data stage transfer
 80034e4:	e0bff503 	ldbu	r2,-44(fp)
 80034e8:	1085883a 	add	r2,r2,r2
 80034ec:	1087883a 	add	r3,r2,r2
 80034f0:	d0a00204 	addi	r2,gp,-32760
 80034f4:	1885883a 	add	r2,r3,r2
 80034f8:	10800017 	ldw	r2,0(r2)
 80034fc:	e13ff803 	ldbu	r4,-32(fp)
 8003500:	e17ff903 	ldbu	r5,-28(fp)
 8003504:	e1bfff0b 	ldhu	r6,-4(fp)
 8003508:	e0fff417 	ldw	r3,-48(fp)
 800350c:	d8c00015 	stw	r3,0(sp)
 8003510:	e1c00617 	ldw	r7,24(fp)
 8003514:	103ee83a 	callr	r2
 8003518:	e0bff545 	stb	r2,-43(fp)
    return( rcode );
 800351c:	e0bff543 	ldbu	r2,-43(fp)
}
 8003520:	e037883a 	mov	sp,fp
 8003524:	dfc00117 	ldw	ra,4(sp)
 8003528:	df000017 	ldw	fp,0(sp)
 800352c:	dec00204 	addi	sp,sp,8
 8003530:	f800283a 	ret

08003534 <XferCtrlData>:
/* Control transfer with data stage */
BYTE XferCtrlData( BYTE addr, BYTE ep, WORD nbytes, BYTE* dataptr, BOOL direction )
{
 8003534:	defff804 	addi	sp,sp,-32
 8003538:	dfc00715 	stw	ra,28(sp)
 800353c:	df000615 	stw	fp,24(sp)
 8003540:	df000604 	addi	fp,sp,24
 8003544:	2807883a 	mov	r3,r5
 8003548:	3005883a 	mov	r2,r6
 800354c:	e1ffff15 	stw	r7,-4(fp)
 8003550:	e13ffc05 	stb	r4,-16(fp)
 8003554:	e0fffd05 	stb	r3,-12(fp)
 8003558:	e0bffe0d 	sth	r2,-8(fp)
  BYTE rcode;

    //MAXreg_wr( rHCTL, bmRCVTOG1 );       //set toggle to DATA1
    if( direction ) {   //IN transfer
 800355c:	e0800217 	ldw	r2,8(fp)
 8003560:	10002826 	beq	r2,zero,8003604 <XferCtrlData+0xd0>
        devtable[ addr ].epinfo[ ep ].rcvToggle = bmRCVTOG1;
 8003564:	e0fffc03 	ldbu	r3,-16(fp)
 8003568:	008200b4 	movhi	r2,2050
 800356c:	10afa704 	addi	r2,r2,-16740
 8003570:	180690fa 	slli	r3,r3,3
 8003574:	10c5883a 	add	r2,r2,r3
 8003578:	10c00017 	ldw	r3,0(r2)
 800357c:	e0bffd03 	ldbu	r2,-12(fp)
 8003580:	100490fa 	slli	r2,r2,3
 8003584:	1885883a 	add	r2,r3,r2
 8003588:	00c00804 	movi	r3,32
 800358c:	10c00185 	stb	r3,6(r2)
        rcode = XferInTransfer( addr, ep, nbytes, dataptr, devtable[ addr ].epinfo[ ep ].MaxPktSize );
 8003590:	e13ffc03 	ldbu	r4,-16(fp)
 8003594:	e17ffd03 	ldbu	r5,-12(fp)
 8003598:	e1bffe0b 	ldhu	r6,-8(fp)
 800359c:	e0fffc03 	ldbu	r3,-16(fp)
 80035a0:	008200b4 	movhi	r2,2050
 80035a4:	10afa704 	addi	r2,r2,-16740
 80035a8:	180690fa 	slli	r3,r3,3
 80035ac:	10c5883a 	add	r2,r2,r3
 80035b0:	10c00017 	ldw	r3,0(r2)
 80035b4:	e0bffd03 	ldbu	r2,-12(fp)
 80035b8:	100490fa 	slli	r2,r2,3
 80035bc:	1885883a 	add	r2,r3,r2
 80035c0:	1080008b 	ldhu	r2,2(r2)
 80035c4:	10803fcc 	andi	r2,r2,255
 80035c8:	d8800015 	stw	r2,0(sp)
 80035cc:	e1ffff17 	ldw	r7,-4(fp)
 80035d0:	800380c0 	call	800380c <XferInTransfer>
 80035d4:	e0bffb05 	stb	r2,-20(fp)
        if( rcode ) {
 80035d8:	e0bffb03 	ldbu	r2,-20(fp)
 80035dc:	10000226 	beq	r2,zero,80035e8 <XferCtrlData+0xb4>
        return( rcode );
 80035e0:	e0bffb03 	ldbu	r2,-20(fp)
 80035e4:	00000806 	br	8003608 <XferCtrlData+0xd4>
        }
        rcode = XferDispatchPkt( tokOUTHS, ep );
 80035e8:	e0bffd03 	ldbu	r2,-12(fp)
 80035ec:	100b883a 	mov	r5,r2
 80035f0:	01002804 	movi	r4,160
 80035f4:	80036900 	call	8003690 <XferDispatchPkt>
 80035f8:	e0bffb05 	stb	r2,-20(fp)
        return( rcode );
 80035fc:	e0bffb03 	ldbu	r2,-20(fp)
 8003600:	00000106 	br	8003608 <XferCtrlData+0xd4>
    }
    else {              //OUT not implemented
        return( 0xff );
 8003604:	00bfffc4 	movi	r2,-1
    }
}
 8003608:	e037883a 	mov	sp,fp
 800360c:	dfc00117 	ldw	ra,4(sp)
 8003610:	df000017 	ldw	fp,0(sp)
 8003614:	dec00204 	addi	sp,sp,8
 8003618:	f800283a 	ret

0800361c <XferCtrlND>:
/* Control transfer with status stage and no data stage */
BYTE XferCtrlND( BYTE addr, BYTE ep, WORD nbytes, BYTE* dataptr, BOOL direction )
{
 800361c:	defff904 	addi	sp,sp,-28
 8003620:	dfc00615 	stw	ra,24(sp)
 8003624:	df000515 	stw	fp,20(sp)
 8003628:	df000504 	addi	fp,sp,20
 800362c:	2807883a 	mov	r3,r5
 8003630:	3005883a 	mov	r2,r6
 8003634:	e1ffff15 	stw	r7,-4(fp)
 8003638:	e13ffc05 	stb	r4,-16(fp)
 800363c:	e0fffd05 	stb	r3,-12(fp)
 8003640:	e0bffe0d 	sth	r2,-8(fp)
  BYTE rcode;
    if( direction ) { //GET
 8003644:	e0800217 	ldw	r2,8(fp)
 8003648:	10000626 	beq	r2,zero,8003664 <XferCtrlND+0x48>
        rcode = XferDispatchPkt( tokOUTHS, ep );
 800364c:	e0bffd03 	ldbu	r2,-12(fp)
 8003650:	100b883a 	mov	r5,r2
 8003654:	01002804 	movi	r4,160
 8003658:	80036900 	call	8003690 <XferDispatchPkt>
 800365c:	e0bffb05 	stb	r2,-20(fp)
 8003660:	00000506 	br	8003678 <XferCtrlND+0x5c>
    }
    else {
        rcode = XferDispatchPkt( tokINHS, ep );
 8003664:	e0bffd03 	ldbu	r2,-12(fp)
 8003668:	100b883a 	mov	r5,r2
 800366c:	01002004 	movi	r4,128
 8003670:	80036900 	call	8003690 <XferDispatchPkt>
 8003674:	e0bffb05 	stb	r2,-20(fp)
    }
    return( rcode );
 8003678:	e0bffb03 	ldbu	r2,-20(fp)
}
 800367c:	e037883a 	mov	sp,fp
 8003680:	dfc00117 	ldw	ra,4(sp)
 8003684:	df000017 	ldw	fp,0(sp)
 8003688:	dec00204 	addi	sp,sp,8
 800368c:	f800283a 	ret

08003690 <XferDispatchPkt>:
/* Result code: 0 success, nonzero = error condition                                                */
/* If NAK, tries to re-send up to USB_NAK_LIMIT times                                               */
/* If bus timeout, re-sends up to USB_RETRY_LIMIT times                                             */
/* return codes 0x00-0x0f are HRSLT( 0x00 being success ), 0xff means timeout                       */
BYTE XferDispatchPkt( BYTE token, BYTE ep )
{
 8003690:	defff904 	addi	sp,sp,-28
 8003694:	dfc00615 	stw	ra,24(sp)
 8003698:	df000515 	stw	fp,20(sp)
 800369c:	df000504 	addi	fp,sp,20
 80036a0:	2007883a 	mov	r3,r4
 80036a4:	2805883a 	mov	r2,r5
 80036a8:	e0fffe05 	stb	r3,-8(fp)
 80036ac:	e0bfff05 	stb	r2,-4(fp)
 * alt_nticks() returns the elapsed number of system clock ticks since reset.
 */

static ALT_INLINE alt_u32 ALT_ALWAYS_INLINE alt_nticks (void)
{
  return _alt_nticks;
 80036b0:	d0a77117 	ldw	r2,-25148(gp)
 DWORD timeout = (alt_nticks()*1000)/alt_ticks_per_second() + USB_XFER_TIMEOUT;
 80036b4:	0140fa04 	movi	r5,1000
 80036b8:	1009883a 	mov	r4,r2
 80036bc:	80044340 	call	8004434 <__mulsi3>
 80036c0:	1007883a 	mov	r3,r2
 * Obtain the system clock rate in ticks/s. 
 */

static ALT_INLINE alt_u32 ALT_ALWAYS_INLINE alt_ticks_per_second (void)
{
  return _alt_tick_rate;
 80036c4:	d0a77017 	ldw	r2,-25152(gp)
 80036c8:	100b883a 	mov	r5,r2
 80036cc:	1809883a 	mov	r4,r3
 80036d0:	80043780 	call	8004378 <__udivsi3>
 80036d4:	1084e204 	addi	r2,r2,5000
 80036d8:	e0bffc15 	stw	r2,-16(fp)
 BYTE tmpdata;
 BYTE rcode;
 char retry_count = 0;
 80036dc:	e03ffb45 	stb	zero,-19(fp)
 BYTE nak_count = 0;
 80036e0:	e03ffb85 	stb	zero,-18(fp)

    while( 1 ) {
        MAXreg_wr( rHXFR, ( token|ep ));            //launch the transfer
 80036e4:	e0fffe03 	ldbu	r3,-8(fp)
 80036e8:	e0bfff03 	ldbu	r2,-4(fp)
 80036ec:	1884b03a 	or	r2,r3,r2
 80036f0:	10803fcc 	andi	r2,r2,255
 80036f4:	100b883a 	mov	r5,r2
 80036f8:	01003c04 	movi	r4,240
 80036fc:	8002cfc0 	call	8002cfc <MAXreg_wr>
        rcode = 0xff;
 8003700:	00bfffc4 	movi	r2,-1
 8003704:	e0bffb05 	stb	r2,-20(fp)
        while( (alt_nticks()*1000)/alt_ticks_per_second() < timeout ) {
 8003708:	00000d06 	br	8003740 <XferDispatchPkt+0xb0>
            tmpdata = MAXreg_rd( rHIRQ );
 800370c:	01003204 	movi	r4,200
 8003710:	8002ec80 	call	8002ec8 <MAXreg_rd>
 8003714:	e0bffd05 	stb	r2,-12(fp)
            if( tmpdata & bmHXFRDNIRQ ) {
 8003718:	e0bffd03 	ldbu	r2,-12(fp)
 800371c:	10803fcc 	andi	r2,r2,255
 8003720:	1080201c 	xori	r2,r2,128
 8003724:	10bfe004 	addi	r2,r2,-128
 8003728:	1000050e 	bge	r2,zero,8003740 <XferDispatchPkt+0xb0>
                MAXreg_wr( rHIRQ, bmHXFRDNIRQ );    //clear the interrupt
 800372c:	01402004 	movi	r5,128
 8003730:	01003204 	movi	r4,200
 8003734:	8002cfc0 	call	8002cfc <MAXreg_wr>
                rcode = 0x00;
 8003738:	e03ffb05 	stb	zero,-20(fp)
                break;
 800373c:	00000c06 	br	8003770 <XferDispatchPkt+0xe0>
 * alt_nticks() returns the elapsed number of system clock ticks since reset.
 */

static ALT_INLINE alt_u32 ALT_ALWAYS_INLINE alt_nticks (void)
{
  return _alt_nticks;
 8003740:	d0a77117 	ldw	r2,-25148(gp)
 BYTE nak_count = 0;

    while( 1 ) {
        MAXreg_wr( rHXFR, ( token|ep ));            //launch the transfer
        rcode = 0xff;
        while( (alt_nticks()*1000)/alt_ticks_per_second() < timeout ) {
 8003744:	0140fa04 	movi	r5,1000
 8003748:	1009883a 	mov	r4,r2
 800374c:	80044340 	call	8004434 <__mulsi3>
 8003750:	1007883a 	mov	r3,r2
 * Obtain the system clock rate in ticks/s. 
 */

static ALT_INLINE alt_u32 ALT_ALWAYS_INLINE alt_ticks_per_second (void)
{
  return _alt_tick_rate;
 8003754:	d0a77017 	ldw	r2,-25152(gp)
 8003758:	100b883a 	mov	r5,r2
 800375c:	1809883a 	mov	r4,r3
 8003760:	80043780 	call	8004378 <__udivsi3>
 8003764:	1007883a 	mov	r3,r2
 8003768:	e0bffc17 	ldw	r2,-16(fp)
 800376c:	18bfe736 	bltu	r3,r2,800370c <__alt_data_end+0xfc00370c>
                MAXreg_wr( rHIRQ, bmHXFRDNIRQ );    //clear the interrupt
                rcode = 0x00;
                break;
            }
        }
        if( rcode != 0x00 ) {               //exit if timeout
 8003770:	e0bffb03 	ldbu	r2,-20(fp)
 8003774:	10000226 	beq	r2,zero,8003780 <XferDispatchPkt+0xf0>
            return( rcode );
 8003778:	e0bffb03 	ldbu	r2,-20(fp)
 800377c:	00001e06 	br	80037f8 <XferDispatchPkt+0x168>
        }
        rcode = ( MAXreg_rd( rHRSL ) & 0x0f );
 8003780:	01003e04 	movi	r4,248
 8003784:	8002ec80 	call	8002ec8 <MAXreg_rd>
 8003788:	108003cc 	andi	r2,r2,15
 800378c:	e0bffb05 	stb	r2,-20(fp)
        if( rcode == hrNAK ) {
 8003790:	e0bffb03 	ldbu	r2,-20(fp)
 8003794:	10800118 	cmpnei	r2,r2,4
 8003798:	1000071e 	bne	r2,zero,80037b8 <XferDispatchPkt+0x128>
            nak_count++;
 800379c:	e0bffb83 	ldbu	r2,-18(fp)
 80037a0:	10800044 	addi	r2,r2,1
 80037a4:	e0bffb85 	stb	r2,-18(fp)
            if( nak_count == USB_NAK_LIMIT ) {
 80037a8:	e0bffb83 	ldbu	r2,-18(fp)
 80037ac:	10803218 	cmpnei	r2,r2,200
 80037b0:	10000b1e 	bne	r2,zero,80037e0 <XferDispatchPkt+0x150>
                break;
 80037b4:	00000f06 	br	80037f4 <XferDispatchPkt+0x164>
            }
            else {
                continue;
            }
        }
        if( rcode == hrTIMEOUT ) {
 80037b8:	e0bffb03 	ldbu	r2,-20(fp)
 80037bc:	10800398 	cmpnei	r2,r2,14
 80037c0:	1000091e 	bne	r2,zero,80037e8 <XferDispatchPkt+0x158>
            retry_count++;
 80037c4:	e0bffb43 	ldbu	r2,-19(fp)
 80037c8:	10800044 	addi	r2,r2,1
 80037cc:	e0bffb45 	stb	r2,-19(fp)
            if( retry_count == USB_RETRY_LIMIT ) {
 80037d0:	e0bffb47 	ldb	r2,-19(fp)
 80037d4:	108000d8 	cmpnei	r2,r2,3
 80037d8:	10000526 	beq	r2,zero,80037f0 <XferDispatchPkt+0x160>
                break;
            }
            else {
                continue;
 80037dc:	00000106 	br	80037e4 <XferDispatchPkt+0x154>
            nak_count++;
            if( nak_count == USB_NAK_LIMIT ) {
                break;
            }
            else {
                continue;
 80037e0:	0001883a 	nop
            else {
                continue;
            }
        }
        else break;
    }//while( 1 )
 80037e4:	003fbf06 	br	80036e4 <__alt_data_end+0xfc0036e4>
            }
            else {
                continue;
            }
        }
        else break;
 80037e8:	0001883a 	nop
 80037ec:	00000106 	br	80037f4 <XferDispatchPkt+0x164>
            }
        }
        if( rcode == hrTIMEOUT ) {
            retry_count++;
            if( retry_count == USB_RETRY_LIMIT ) {
                break;
 80037f0:	0001883a 	nop
                continue;
            }
        }
        else break;
    }//while( 1 )
    return( rcode );
 80037f4:	e0bffb03 	ldbu	r2,-20(fp)
}
 80037f8:	e037883a 	mov	sp,fp
 80037fc:	dfc00117 	ldw	ra,4(sp)
 8003800:	df000017 	ldw	fp,0(sp)
 8003804:	dec00204 	addi	sp,sp,8
 8003808:	f800283a 	ret

0800380c <XferInTransfer>:
/* IN transfer to arbitrary endpoint. Assumes PERADDR is set. Handles multiple packets if necessary. Transfers 'nbytes' bytes.
    Keep sending INs and writes data to memory area pointed by 'data' */
/* rcode 0 if no errors. rcode 01-0f is relayed from prvXferDispatchPkt(). Rcode f0 means RCVDAVIRQ error,
            fe USB xfer timeout */
BYTE XferInTransfer( BYTE addr/* not sure if it's necessary */, BYTE ep, WORD nbytes, BYTE* data, BYTE maxpktsize )
{
 800380c:	defff804 	addi	sp,sp,-32
 8003810:	dfc00715 	stw	ra,28(sp)
 8003814:	df000615 	stw	fp,24(sp)
 8003818:	df000604 	addi	fp,sp,24
 800381c:	2011883a 	mov	r8,r4
 8003820:	2809883a 	mov	r4,r5
 8003824:	3007883a 	mov	r3,r6
 8003828:	e1fffe15 	stw	r7,-8(fp)
 800382c:	e0800217 	ldw	r2,8(fp)
 8003830:	e23ffb05 	stb	r8,-20(fp)
 8003834:	e13ffc05 	stb	r4,-16(fp)
 8003838:	e0fffd0d 	sth	r3,-12(fp)
 800383c:	e0bfff05 	stb	r2,-4(fp)
 BYTE rcode;
 BYTE i;
 BYTE tmpbyte;
 BYTE pktsize;
 WORD xfrlen = 0;
 8003840:	e03ffa0d 	sth	zero,-24(fp)
    MAXreg_wr( rHCTL, devtable[ addr ].epinfo[ ep ].rcvToggle );    //set toggle value
 8003844:	e0fffb03 	ldbu	r3,-20(fp)
 8003848:	008200b4 	movhi	r2,2050
 800384c:	10afa704 	addi	r2,r2,-16740
 8003850:	180690fa 	slli	r3,r3,3
 8003854:	10c5883a 	add	r2,r2,r3
 8003858:	10c00017 	ldw	r3,0(r2)
 800385c:	e0bffc03 	ldbu	r2,-16(fp)
 8003860:	100490fa 	slli	r2,r2,3
 8003864:	1885883a 	add	r2,r3,r2
 8003868:	10800183 	ldbu	r2,6(r2)
 800386c:	10803fcc 	andi	r2,r2,255
 8003870:	100b883a 	mov	r5,r2
 8003874:	01003a04 	movi	r4,232
 8003878:	8002cfc0 	call	8002cfc <MAXreg_wr>
    while( 1 ) { // use a 'return' to exit this loop
        rcode = XferDispatchPkt( tokIN, ep );           //IN packet to EP-'endpoint'. Function takes care of NAKS.
 800387c:	e0bffc03 	ldbu	r2,-16(fp)
 8003880:	100b883a 	mov	r5,r2
 8003884:	0009883a 	mov	r4,zero
 8003888:	80036900 	call	8003690 <XferDispatchPkt>
 800388c:	e0bffa85 	stb	r2,-22(fp)
        if( rcode ) {
 8003890:	e0bffa83 	ldbu	r2,-22(fp)
 8003894:	10000226 	beq	r2,zero,80038a0 <XferInTransfer+0x94>
            return( rcode );                            //should be 0, indicating ACK. Else return error code.
 8003898:	e0bffa83 	ldbu	r2,-22(fp)
 800389c:	00003a06 	br	8003988 <XferInTransfer+0x17c>
        }
        /* check for RCVDAVIRQ and generate error if not present */
        /* the only case when absence of RCVDAVIRQ makes sense is when toggle error occurred. Need to add handling for that */
        if(( MAXreg_rd( rHIRQ ) & bmRCVDAVIRQ ) == 0 ) {
 80038a0:	01003204 	movi	r4,200
 80038a4:	8002ec80 	call	8002ec8 <MAXreg_rd>
 80038a8:	10803fcc 	andi	r2,r2,255
 80038ac:	1080010c 	andi	r2,r2,4
 80038b0:	1000021e 	bne	r2,zero,80038bc <XferInTransfer+0xb0>
            return ( 0xf0 );                            //receive error
 80038b4:	00bffc04 	movi	r2,-16
 80038b8:	00003306 	br	8003988 <XferInTransfer+0x17c>
        }
        pktsize = MAXreg_rd( rRCVBC );                  //number of received bytes
 80038bc:	01000c04 	movi	r4,48
 80038c0:	8002ec80 	call	8002ec8 <MAXreg_rd>
 80038c4:	e0bffac5 	stb	r2,-21(fp)
        //printf ("pktsize: %d\n", pktsize);
        data = MAXbytes_rd( rRCVFIFO, pktsize, data );
 80038c8:	e0bffac3 	ldbu	r2,-21(fp)
 80038cc:	e1bffe17 	ldw	r6,-8(fp)
 80038d0:	100b883a 	mov	r5,r2
 80038d4:	01000204 	movi	r4,8
 80038d8:	8002f280 	call	8002f28 <MAXbytes_rd>
 80038dc:	e0bffe15 	stw	r2,-8(fp)
        MAXreg_wr( rHIRQ, bmRCVDAVIRQ );                // Clear the IRQ & free the buffer
 80038e0:	01400104 	movi	r5,4
 80038e4:	01003204 	movi	r4,200
 80038e8:	8002cfc0 	call	8002cfc <MAXreg_wr>
        xfrlen += pktsize;                              // add this packet's byte count to total transfer length
 80038ec:	e0fffac3 	ldbu	r3,-21(fp)
 80038f0:	e0bffa0b 	ldhu	r2,-24(fp)
 80038f4:	1885883a 	add	r2,r3,r2
 80038f8:	e0bffa0d 	sth	r2,-24(fp)
        /* The transfer is complete under two conditions:           */
        /* 1. The device sent a short packet (L.T. maxPacketSize)   */
        /* 2. 'nbytes' have been transferred.                       */
        if (( pktsize < maxpktsize ) || (xfrlen >= nbytes )) {    // have we transferred 'nbytes' bytes?
 80038fc:	e0fffac3 	ldbu	r3,-21(fp)
 8003900:	e0bfff03 	ldbu	r2,-4(fp)
 8003904:	18800336 	bltu	r3,r2,8003914 <XferInTransfer+0x108>
 8003908:	e0fffa0b 	ldhu	r3,-24(fp)
 800390c:	e0bffd0b 	ldhu	r2,-12(fp)
 8003910:	18bfda36 	bltu	r3,r2,800387c <__alt_data_end+0xfc00387c>
            if( MAXreg_rd( rHRSL ) & bmRCVTOGRD ) {                 //save toggle value
 8003914:	01003e04 	movi	r4,248
 8003918:	8002ec80 	call	8002ec8 <MAXreg_rd>
 800391c:	10803fcc 	andi	r2,r2,255
 8003920:	1080040c 	andi	r2,r2,16
 8003924:	10000c26 	beq	r2,zero,8003958 <XferInTransfer+0x14c>
                devtable[ addr ].epinfo[ ep ].rcvToggle = bmRCVTOG1;
 8003928:	e0fffb03 	ldbu	r3,-20(fp)
 800392c:	008200b4 	movhi	r2,2050
 8003930:	10afa704 	addi	r2,r2,-16740
 8003934:	180690fa 	slli	r3,r3,3
 8003938:	10c5883a 	add	r2,r2,r3
 800393c:	10c00017 	ldw	r3,0(r2)
 8003940:	e0bffc03 	ldbu	r2,-16(fp)
 8003944:	100490fa 	slli	r2,r2,3
 8003948:	1885883a 	add	r2,r3,r2
 800394c:	00c00804 	movi	r3,32
 8003950:	10c00185 	stb	r3,6(r2)
 8003954:	00000b06 	br	8003984 <XferInTransfer+0x178>
            }
            else {
                devtable[ addr ].epinfo[ ep ].rcvToggle = bmRCVTOG0;
 8003958:	e0fffb03 	ldbu	r3,-20(fp)
 800395c:	008200b4 	movhi	r2,2050
 8003960:	10afa704 	addi	r2,r2,-16740
 8003964:	180690fa 	slli	r3,r3,3
 8003968:	10c5883a 	add	r2,r2,r3
 800396c:	10c00017 	ldw	r3,0(r2)
 8003970:	e0bffc03 	ldbu	r2,-16(fp)
 8003974:	100490fa 	slli	r2,r2,3
 8003978:	1885883a 	add	r2,r3,r2
 800397c:	00c00404 	movi	r3,16
 8003980:	10c00185 	stb	r3,6(r2)
            }
            return( 0 );
 8003984:	0005883a 	mov	r2,zero
        }
  }//while( 1 )
}
 8003988:	e037883a 	mov	sp,fp
 800398c:	dfc00117 	ldw	ra,4(sp)
 8003990:	df000017 	ldw	fp,0(sp)
 8003994:	dec00204 	addi	sp,sp,8
 8003998:	f800283a 	ret

0800399c <USB_init>:
/* initialization of USB data structures */
void USB_init( void )
{
 800399c:	defffe04 	addi	sp,sp,-8
 80039a0:	df000115 	stw	fp,4(sp)
 80039a4:	df000104 	addi	fp,sp,4
  BYTE i;
    for( i = 0; i < ( USB_NUMDEVICES + 1 ); i++ ) {
 80039a8:	e03fff05 	stb	zero,-4(fp)
 80039ac:	00001006 	br	80039f0 <USB_init+0x54>
        devtable[ i ].epinfo = NULL;       //clear device table
 80039b0:	e0ffff03 	ldbu	r3,-4(fp)
 80039b4:	008200b4 	movhi	r2,2050
 80039b8:	10afa704 	addi	r2,r2,-16740
 80039bc:	180690fa 	slli	r3,r3,3
 80039c0:	10c5883a 	add	r2,r2,r3
 80039c4:	10000015 	stw	zero,0(r2)
        devtable[ i ].devclass = 0;
 80039c8:	e0ffff03 	ldbu	r3,-4(fp)
 80039cc:	008200b4 	movhi	r2,2050
 80039d0:	10afa704 	addi	r2,r2,-16740
 80039d4:	180690fa 	slli	r3,r3,3
 80039d8:	10c5883a 	add	r2,r2,r3
 80039dc:	10800104 	addi	r2,r2,4
 80039e0:	10000005 	stb	zero,0(r2)
}
/* initialization of USB data structures */
void USB_init( void )
{
  BYTE i;
    for( i = 0; i < ( USB_NUMDEVICES + 1 ); i++ ) {
 80039e4:	e0bfff03 	ldbu	r2,-4(fp)
 80039e8:	10800044 	addi	r2,r2,1
 80039ec:	e0bfff05 	stb	r2,-4(fp)
 80039f0:	e0bfff03 	ldbu	r2,-4(fp)
 80039f4:	10800270 	cmpltui	r2,r2,9
 80039f8:	103fed1e 	bne	r2,zero,80039b0 <__alt_data_end+0xfc0039b0>
        devtable[ i ].epinfo = NULL;       //clear device table
        devtable[ i ].devclass = 0;
    }
    devtable[ 0 ].epinfo = &dev0ep;  //set single ep for uninitialized device
 80039fc:	008200b4 	movhi	r2,2050
 8003a00:	10afa704 	addi	r2,r2,-16740
 8003a04:	d0e75d04 	addi	r3,gp,-25228
 8003a08:	10c00015 	stw	r3,0(r2)
    dev0ep.MaxPktSize = 0;
 8003a0c:	d0275d8d 	sth	zero,-25226(gp)
    dev0ep.sndToggle = bmSNDTOG0;   //set DATA0/1 toggles to 0
 8003a10:	00801004 	movi	r2,64
 8003a14:	d0a75e45 	stb	r2,-25223(gp)
    dev0ep.rcvToggle = bmRCVTOG0;
 8003a18:	00800404 	movi	r2,16
 8003a1c:	d0a75e85 	stb	r2,-25222(gp)
}
 8003a20:	0001883a 	nop
 8003a24:	e037883a 	mov	sp,fp
 8003a28:	df000017 	ldw	fp,0(sp)
 8003a2c:	dec00104 	addi	sp,sp,4
 8003a30:	f800283a 	ret

08003a34 <USB_Task>:
/* error codes: 01-0f HRSLT        */
/* ff - unsupported device         */
/* fe - no address available       */
/* fd - no client driver available */
void USB_Task( void )
{
 8003a34:	deffb204 	addi	sp,sp,-312
 8003a38:	dfc04d15 	stw	ra,308(sp)
 8003a3c:	df004c15 	stw	fp,304(sp)
 8003a40:	dc004b15 	stw	r16,300(sp)
 8003a44:	df004c04 	addi	fp,sp,304
 USB_DEVICE_DESCRIPTOR buf;

 BYTE rcode, tmpdata;
 BYTE i;

    switch( usb_task_state & USB_STATE_MASK ) {
 8003a48:	d0a00403 	ldbu	r2,-32752(gp)
 8003a4c:	10803fcc 	andi	r2,r2,255
 8003a50:	10803c0c 	andi	r2,r2,240
 8003a54:	10c00820 	cmpeqi	r3,r2,32
 8003a58:	1801121e 	bne	r3,zero,8003ea4 <USB_Task+0x470>
 8003a5c:	10c00848 	cmpgei	r3,r2,33
 8003a60:	1800041e 	bne	r3,zero,8003a74 <USB_Task+0x40>
 8003a64:	10000a26 	beq	r2,zero,8003a90 <USB_Task+0x5c>
 8003a68:	10800420 	cmpeqi	r2,r2,16
 8003a6c:	10001b1e 	bne	r2,zero,8003adc <USB_Task+0xa8>
        case( USB_STATE_ERROR ):
            //vTaskDelay( LED_RATE ); //stay here if error
            break;//( USB_STATE_ERROR )
        default:
            //Should never get here
            break;
 8003a70:	00017a06 	br	800405c <USB_Task+0x628>
 USB_DEVICE_DESCRIPTOR buf;

 BYTE rcode, tmpdata;
 BYTE i;

    switch( usb_task_state & USB_STATE_MASK ) {
 8003a74:	10c01020 	cmpeqi	r3,r2,64
 8003a78:	18016f1e 	bne	r3,zero,8004038 <USB_Task+0x604>
 8003a7c:	10c03fe0 	cmpeqi	r3,r2,255
 8003a80:	18016f1e 	bne	r3,zero,8004040 <USB_Task+0x60c>
 8003a84:	10800c20 	cmpeqi	r2,r2,48
 8003a88:	1001441e 	bne	r2,zero,8003f9c <USB_Task+0x568>
        case( USB_STATE_ERROR ):
            //vTaskDelay( LED_RATE ); //stay here if error
            break;//( USB_STATE_ERROR )
        default:
            //Should never get here
            break;
 8003a8c:	00017306 	br	800405c <USB_Task+0x628>
 BYTE i;

    switch( usb_task_state & USB_STATE_MASK ) {
        /* Detached state - when nothing is connected to ( or just disconnected from) USB bus   */
        case( USB_STATE_DETACHED ):
            switch( usb_task_state ) {
 8003a90:	d0a00403 	ldbu	r2,-32752(gp)
 8003a94:	10803fcc 	andi	r2,r2,255
 8003a98:	10c000e0 	cmpeqi	r3,r2,3
 8003a9c:	1800091e 	bne	r3,zero,8003ac4 <USB_Task+0x90>
 8003aa0:	10c00120 	cmpeqi	r3,r2,4
 8003aa4:	18000b1e 	bne	r3,zero,8003ad4 <USB_Task+0xa0>
 8003aa8:	10800060 	cmpeqi	r2,r2,1
 8003aac:	1000011e 	bne	r2,zero,8003ab4 <USB_Task+0x80>
                    break;
                case( USB_DETACHED_SUBSTATE_ILLEGAL ):
                    /* don't know what to do yet */
                    break;
            }//switch( usb_task_state )
            break;//( USB_STATE_DETACHED ):
 8003ab0:	00016a06 	br	800405c <USB_Task+0x628>
        /* Detached state - when nothing is connected to ( or just disconnected from) USB bus   */
        case( USB_STATE_DETACHED ):
            switch( usb_task_state ) {
                case( USB_DETACHED_SUBSTATE_INITIALIZE ):
                    /* cleanup device data structures */
                    USB_init();
 8003ab4:	800399c0 	call	800399c <USB_init>
                    usb_task_state = USB_DETACHED_SUBSTATE_WAIT_FOR_DEVICE;
 8003ab8:	008000c4 	movi	r2,3
 8003abc:	d0a00405 	stb	r2,-32752(gp)
                    break;
 8003ac0:	00000506 	br	8003ad8 <USB_Task+0xa4>
                case( USB_DETACHED_SUBSTATE_WAIT_FOR_DEVICE ):
                    /* Do nothing */
                    MAXreg_wr(rHCTL,bmSAMPLEBUS);
 8003ac4:	01400104 	movi	r5,4
 8003ac8:	01003a04 	movi	r4,232
 8003acc:	8002cfc0 	call	8002cfc <MAXreg_wr>
                    break;
 8003ad0:	00000106 	br	8003ad8 <USB_Task+0xa4>
                case( USB_DETACHED_SUBSTATE_ILLEGAL ):
                    /* don't know what to do yet */
                    break;
 8003ad4:	0001883a 	nop
            }//switch( usb_task_state )
            break;//( USB_STATE_DETACHED ):
 8003ad8:	00016006 	br	800405c <USB_Task+0x628>
            /**/
        case( USB_STATE_ATTACHED ):                     //prepare for enumeration
            switch( usb_task_state ) {
 8003adc:	d0a00403 	ldbu	r2,-32752(gp)
 8003ae0:	10803fcc 	andi	r2,r2,255
 8003ae4:	10bffc04 	addi	r2,r2,-16
 8003ae8:	10c001a8 	cmpgeui	r3,r2,6
 8003aec:	1801561e 	bne	r3,zero,8004048 <USB_Task+0x614>
 8003af0:	100690ba 	slli	r3,r2,2
 8003af4:	00820034 	movhi	r2,2048
 8003af8:	108ec204 	addi	r2,r2,15112
 8003afc:	1885883a 	add	r2,r3,r2
 8003b00:	10800017 	ldw	r2,0(r2)
 8003b04:	1000683a 	jmp	r2
 8003b08:	08003b20 	cmpeqi	zero,at,236
 8003b0c:	08003b58 	cmpnei	zero,at,237
 8003b10:	08003b94 	ori	zero,at,238
 8003b14:	08003bb8 	rdprs	zero,at,238
 8003b18:	08003bf8 	rdprs	zero,at,239
 8003b1c:	08003c0c 	andi	zero,at,240
 * alt_nticks() returns the elapsed number of system clock ticks since reset.
 */

static ALT_INLINE alt_u32 ALT_ALWAYS_INLINE alt_nticks (void)
{
  return _alt_nticks;
 8003b20:	d0a77117 	ldw	r2,-25148(gp)
                case( USB_STATE_ATTACHED ):
                    usb_delay = (alt_nticks()*1000)/alt_ticks_per_second() + 200;           //initial settle 200ms
 8003b24:	0140fa04 	movi	r5,1000
 8003b28:	1009883a 	mov	r4,r2
 8003b2c:	80044340 	call	8004434 <__mulsi3>
 8003b30:	1007883a 	mov	r3,r2
 * Obtain the system clock rate in ticks/s. 
 */

static ALT_INLINE alt_u32 ALT_ALWAYS_INLINE alt_ticks_per_second (void)
{
  return _alt_tick_rate;
 8003b34:	d0a77017 	ldw	r2,-25152(gp)
 8003b38:	100b883a 	mov	r5,r2
 8003b3c:	1809883a 	mov	r4,r3
 8003b40:	80043780 	call	8004378 <__udivsi3>
 8003b44:	10803204 	addi	r2,r2,200
 8003b48:	d0a76015 	stw	r2,-25216(gp)
                    usb_task_state = USB_ATTACHED_SUBSTATE_SETTLE;
 8003b4c:	00800444 	movi	r2,17
 8003b50:	d0a00405 	stb	r2,-32752(gp)
                    break;//case( USB_STATE_ATTACHED )
 8003b54:	0000d206 	br	8003ea0 <USB_Task+0x46c>
 * alt_nticks() returns the elapsed number of system clock ticks since reset.
 */

static ALT_INLINE alt_u32 ALT_ALWAYS_INLINE alt_nticks (void)
{
  return _alt_nticks;
 8003b58:	d0a77117 	ldw	r2,-25148(gp)
                case( USB_ATTACHED_SUBSTATE_SETTLE ):   //waiting for settle timer to expire
                    if( (alt_nticks()*1000)/alt_ticks_per_second() > usb_delay ) {
 8003b5c:	0140fa04 	movi	r5,1000
 8003b60:	1009883a 	mov	r4,r2
 8003b64:	80044340 	call	8004434 <__mulsi3>
 8003b68:	1007883a 	mov	r3,r2
 * Obtain the system clock rate in ticks/s. 
 */

static ALT_INLINE alt_u32 ALT_ALWAYS_INLINE alt_ticks_per_second (void)
{
  return _alt_tick_rate;
 8003b6c:	d0a77017 	ldw	r2,-25152(gp)
 8003b70:	100b883a 	mov	r5,r2
 8003b74:	1809883a 	mov	r4,r3
 8003b78:	80043780 	call	8004378 <__udivsi3>
 8003b7c:	1007883a 	mov	r3,r2
 8003b80:	d0a76017 	ldw	r2,-25216(gp)
 8003b84:	10c0c32e 	bgeu	r2,r3,8003e94 <USB_Task+0x460>
                        usb_task_state = USB_ATTACHED_SUBSTATE_RESET_DEVICE;
 8003b88:	00800484 	movi	r2,18
 8003b8c:	d0a00405 	stb	r2,-32752(gp)
                    }
                    break;//case( USB_ATTACHED_SUBSTATE_SETTLE )
 8003b90:	0000c006 	br	8003e94 <USB_Task+0x460>
                case( USB_ATTACHED_SUBSTATE_RESET_DEVICE ):
                    MAXreg_wr( rHIRQ, bmBUSEVENTIRQ );                               //clear bus event IRQ
 8003b94:	01400044 	movi	r5,1
 8003b98:	01003204 	movi	r4,200
 8003b9c:	8002cfc0 	call	8002cfc <MAXreg_wr>
                    MAXreg_wr( rHCTL, bmBUSRST );                                    //issue bus reset
 8003ba0:	01400044 	movi	r5,1
 8003ba4:	01003a04 	movi	r4,232
 8003ba8:	8002cfc0 	call	8002cfc <MAXreg_wr>
                    usb_task_state = USB_ATTACHED_SUBSTATE_WAIT_RESET_COMPLETE;
 8003bac:	008004c4 	movi	r2,19
 8003bb0:	d0a00405 	stb	r2,-32752(gp)
                    break;//case( USB_ATTACHED_SUBSTATE_RESET_DEVICE )
 8003bb4:	0000ba06 	br	8003ea0 <USB_Task+0x46c>
                case( USB_ATTACHED_SUBSTATE_WAIT_RESET_COMPLETE ):                  //wait for bus reset and first SOF
                    if(( MAXreg_rd( rHCTL ) & bmBUSRST ) == 0 ) {
 8003bb8:	01003a04 	movi	r4,232
 8003bbc:	8002ec80 	call	8002ec8 <MAXreg_rd>
 8003bc0:	10803fcc 	andi	r2,r2,255
 8003bc4:	1080004c 	andi	r2,r2,1
 8003bc8:	1000b41e 	bne	r2,zero,8003e9c <USB_Task+0x468>
                        tmpdata = MAXreg_rd( rMODE ) | bmSOFKAENAB;                 //start SOF generation
 8003bcc:	01003604 	movi	r4,216
 8003bd0:	8002ec80 	call	8002ec8 <MAXreg_rd>
 8003bd4:	10800214 	ori	r2,r2,8
 8003bd8:	e0bfb945 	stb	r2,-283(fp)
                        MAXreg_wr( rMODE, tmpdata );
 8003bdc:	e0bfb943 	ldbu	r2,-283(fp)
 8003be0:	100b883a 	mov	r5,r2
 8003be4:	01003604 	movi	r4,216
 8003be8:	8002cfc0 	call	8002cfc <MAXreg_wr>
                        usb_task_state = USB_ATTACHED_SUBSTATE_WAIT_SOF;
 8003bec:	00800504 	movi	r2,20
 8003bf0:	d0a00405 	stb	r2,-32752(gp)
                    }
                    break;//case( USB_ATTACHED_SUBSTATE_WAIT_RESET_COMPLETE )
 8003bf4:	0000a906 	br	8003e9c <USB_Task+0x468>
                case( USB_ATTACHED_SUBSTATE_WAIT_SOF ):
                    if( MAXreg_rd( rHIRQ ) | bmFRAMEIRQ ) {                     //when first SOF received we can continue
 8003bf8:	01003204 	movi	r4,200
 8003bfc:	8002ec80 	call	8002ec8 <MAXreg_rd>
                        usb_task_state = USB_ATTACHED_SUBSTATE_GET_DEVICE_DESCRIPTOR_SIZE;
 8003c00:	00800544 	movi	r2,21
 8003c04:	d0a00405 	stb	r2,-32752(gp)
                    }
                    break;//case( USB_ATTACHED_SUBSTATE_WAIT_SOF )
 8003c08:	0000a506 	br	8003ea0 <USB_Task+0x46c>
                case( USB_ATTACHED_SUBSTATE_GET_DEVICE_DESCRIPTOR_SIZE ):   //send request for first 8 bytes of device descriptor
                    devtable[ 0 ].epinfo->MaxPktSize = 0x0008;             //fill max packet size with minimum allowed
 8003c0c:	008200b4 	movhi	r2,2050
 8003c10:	10afa704 	addi	r2,r2,-16740
 8003c14:	10800017 	ldw	r2,0(r2)
 8003c18:	00c00204 	movi	r3,8
 8003c1c:	10c0008d 	sth	r3,2(r2)
                	rcode = XferGetDevDescr( 0, 0, 8, (BYTE *)&buf );       //get device descriptor size
 8003c20:	e0bfba04 	addi	r2,fp,-280
 8003c24:	d8800415 	stw	r2,16(sp)
 8003c28:	00800204 	movi	r2,8
 8003c2c:	d8800315 	stw	r2,12(sp)
 8003c30:	d8000215 	stw	zero,8(sp)
 8003c34:	00800044 	movi	r2,1
 8003c38:	d8800115 	stw	r2,4(sp)
 8003c3c:	d8000015 	stw	zero,0(sp)
 8003c40:	01c00184 	movi	r7,6
 8003c44:	01802004 	movi	r6,128
 8003c48:	000b883a 	mov	r5,zero
 8003c4c:	0009883a 	mov	r4,zero
 8003c50:	80033e80 	call	80033e8 <XferCtrlReq>
 8003c54:	e0bfb985 	stb	r2,-282(fp)
                    if( rcode == 0 ) {
 8003c58:	e0bfb983 	ldbu	r2,-282(fp)
 8003c5c:	1000861e 	bne	r2,zero,8003e78 <USB_Task+0x444>
                        devtable[ 0 ].epinfo->MaxPktSize = buf.bMaxPacketSize0;
 8003c60:	008200b4 	movhi	r2,2050
 8003c64:	10afa704 	addi	r2,r2,-16740
 8003c68:	10800017 	ldw	r2,0(r2)
 8003c6c:	e0ffbbc3 	ldbu	r3,-273(fp)
 8003c70:	18c03fcc 	andi	r3,r3,255
 8003c74:	10c0008d 	sth	r3,2(r2)

                        rcode = XferGetDevDescr( 0, 0, buf.bLength, (BYTE *)&buf );     //get full descriptor
 8003c78:	e0bfba03 	ldbu	r2,-280(fp)
 8003c7c:	10803fcc 	andi	r2,r2,255
 8003c80:	e0ffba04 	addi	r3,fp,-280
 8003c84:	d8c00415 	stw	r3,16(sp)
 8003c88:	d8800315 	stw	r2,12(sp)
 8003c8c:	d8000215 	stw	zero,8(sp)
 8003c90:	00800044 	movi	r2,1
 8003c94:	d8800115 	stw	r2,4(sp)
 8003c98:	d8000015 	stw	zero,0(sp)
 8003c9c:	01c00184 	movi	r7,6
 8003ca0:	01802004 	movi	r6,128
 8003ca4:	000b883a 	mov	r5,zero
 8003ca8:	0009883a 	mov	r4,zero
 8003cac:	80033e80 	call	80033e8 <XferCtrlReq>
 8003cb0:	e0bfb985 	stb	r2,-282(fp)
                        //pull the string descriptor for the product if it exists
            			//hackish, store this somewhere
                        if (buf.iManufacturer != 0)
 8003cb4:	e0bfbd83 	ldbu	r2,-266(fp)
 8003cb8:	10803fcc 	andi	r2,r2,255
 8003cbc:	10003426 	beq	r2,zero,8003d90 <USB_Task+0x35c>
                		{
                        	USB_STRING_DESCRIPTOR strDesc;
                			rcode = XferGetStrDescr( 0, 0, 2, buf.iManufacturer, LANG_EN_US, (BYTE *)&strDesc);
 8003cc0:	e0bfbd83 	ldbu	r2,-266(fp)
 8003cc4:	10803fcc 	andi	r2,r2,255
 8003cc8:	e0ffbe84 	addi	r3,fp,-262
 8003ccc:	d8c00415 	stw	r3,16(sp)
 8003cd0:	00c00084 	movi	r3,2
 8003cd4:	d8c00315 	stw	r3,12(sp)
 8003cd8:	00c10244 	movi	r3,1033
 8003cdc:	d8c00215 	stw	r3,8(sp)
 8003ce0:	00c000c4 	movi	r3,3
 8003ce4:	d8c00115 	stw	r3,4(sp)
 8003ce8:	d8800015 	stw	r2,0(sp)
 8003cec:	01c00184 	movi	r7,6
 8003cf0:	01802004 	movi	r6,128
 8003cf4:	000b883a 	mov	r5,zero
 8003cf8:	0009883a 	mov	r4,zero
 8003cfc:	80033e80 	call	80033e8 <XferCtrlReq>
 8003d00:	e0bfb985 	stb	r2,-282(fp)
                			rcode = XferGetStrDescr( 0, 0, strDesc.bLength, buf.iManufacturer, LANG_EN_US, (BYTE *)&strDesc);
 8003d04:	e0bfbd83 	ldbu	r2,-266(fp)
 8003d08:	10803fcc 	andi	r2,r2,255
 8003d0c:	e0ffbe83 	ldbu	r3,-262(fp)
 8003d10:	18c03fcc 	andi	r3,r3,255
 8003d14:	e13fbe84 	addi	r4,fp,-262
 8003d18:	d9000415 	stw	r4,16(sp)
 8003d1c:	d8c00315 	stw	r3,12(sp)
 8003d20:	00c10244 	movi	r3,1033
 8003d24:	d8c00215 	stw	r3,8(sp)
 8003d28:	00c000c4 	movi	r3,3
 8003d2c:	d8c00115 	stw	r3,4(sp)
 8003d30:	d8800015 	stw	r2,0(sp)
 8003d34:	01c00184 	movi	r7,6
 8003d38:	01802004 	movi	r6,128
 8003d3c:	000b883a 	mov	r5,zero
 8003d40:	0009883a 	mov	r4,zero
 8003d44:	80033e80 	call	80033e8 <XferCtrlReq>
 8003d48:	e0bfb985 	stb	r2,-282(fp)
                			printf ("Mfgr string(%i): %s\n", buf.iManufacturer, ConvUTF8ToStr(strDesc.bString, (strDesc.bLength>>1)-1));
 8003d4c:	e0bfbd83 	ldbu	r2,-266(fp)
 8003d50:	14003fcc 	andi	r16,r2,255
 8003d54:	e0bfbe83 	ldbu	r2,-262(fp)
 8003d58:	10803fcc 	andi	r2,r2,255
 8003d5c:	1004d07a 	srli	r2,r2,1
 8003d60:	10bfffc4 	addi	r2,r2,-1
 8003d64:	10c03fcc 	andi	r3,r2,255
 8003d68:	e0bfbe84 	addi	r2,fp,-262
 8003d6c:	10800084 	addi	r2,r2,2
 8003d70:	180b883a 	mov	r5,r3
 8003d74:	1009883a 	mov	r4,r2
 8003d78:	80041fc0 	call	80041fc <ConvUTF8ToStr>
 8003d7c:	100d883a 	mov	r6,r2
 8003d80:	800b883a 	mov	r5,r16
 8003d84:	01020074 	movhi	r4,2049
 8003d88:	211f0c04 	addi	r4,r4,31792
 8003d8c:	80045d40 	call	80045d4 <printf>
                		}
                		if (buf.iProduct != 0)
 8003d90:	e0bfbdc3 	ldbu	r2,-265(fp)
 8003d94:	10803fcc 	andi	r2,r2,255
 8003d98:	10003426 	beq	r2,zero,8003e6c <USB_Task+0x438>
                		{
                        	USB_STRING_DESCRIPTOR strDesc;
                        	rcode = XferGetStrDescr( 0, 0, 2, buf.iProduct, LANG_EN_US, (BYTE *)&strDesc);
 8003d9c:	e0bfbdc3 	ldbu	r2,-265(fp)
 8003da0:	10803fcc 	andi	r2,r2,255
 8003da4:	e0ffbe84 	addi	r3,fp,-262
 8003da8:	d8c00415 	stw	r3,16(sp)
 8003dac:	00c00084 	movi	r3,2
 8003db0:	d8c00315 	stw	r3,12(sp)
 8003db4:	00c10244 	movi	r3,1033
 8003db8:	d8c00215 	stw	r3,8(sp)
 8003dbc:	00c000c4 	movi	r3,3
 8003dc0:	d8c00115 	stw	r3,4(sp)
 8003dc4:	d8800015 	stw	r2,0(sp)
 8003dc8:	01c00184 	movi	r7,6
 8003dcc:	01802004 	movi	r6,128
 8003dd0:	000b883a 	mov	r5,zero
 8003dd4:	0009883a 	mov	r4,zero
 8003dd8:	80033e80 	call	80033e8 <XferCtrlReq>
 8003ddc:	e0bfb985 	stb	r2,-282(fp)
                			rcode = XferGetStrDescr( 0, 0, strDesc.bLength, buf.iProduct, LANG_EN_US, (BYTE *)&strDesc);
 8003de0:	e0bfbdc3 	ldbu	r2,-265(fp)
 8003de4:	10803fcc 	andi	r2,r2,255
 8003de8:	e0ffbe83 	ldbu	r3,-262(fp)
 8003dec:	18c03fcc 	andi	r3,r3,255
 8003df0:	e13fbe84 	addi	r4,fp,-262
 8003df4:	d9000415 	stw	r4,16(sp)
 8003df8:	d8c00315 	stw	r3,12(sp)
 8003dfc:	00c10244 	movi	r3,1033
 8003e00:	d8c00215 	stw	r3,8(sp)
 8003e04:	00c000c4 	movi	r3,3
 8003e08:	d8c00115 	stw	r3,4(sp)
 8003e0c:	d8800015 	stw	r2,0(sp)
 8003e10:	01c00184 	movi	r7,6
 8003e14:	01802004 	movi	r6,128
 8003e18:	000b883a 	mov	r5,zero
 8003e1c:	0009883a 	mov	r4,zero
 8003e20:	80033e80 	call	80033e8 <XferCtrlReq>
 8003e24:	e0bfb985 	stb	r2,-282(fp)
                			printf ("Product string(%i): %s\n", buf.iProduct, ConvUTF8ToStr(strDesc.bString, (strDesc.bLength>>1)-1));
 8003e28:	e0bfbdc3 	ldbu	r2,-265(fp)
 8003e2c:	14003fcc 	andi	r16,r2,255
 8003e30:	e0bfbe83 	ldbu	r2,-262(fp)
 8003e34:	10803fcc 	andi	r2,r2,255
 8003e38:	1004d07a 	srli	r2,r2,1
 8003e3c:	10bfffc4 	addi	r2,r2,-1
 8003e40:	10c03fcc 	andi	r3,r2,255
 8003e44:	e0bfbe84 	addi	r2,fp,-262
 8003e48:	10800084 	addi	r2,r2,2
 8003e4c:	180b883a 	mov	r5,r3
 8003e50:	1009883a 	mov	r4,r2
 8003e54:	80041fc0 	call	80041fc <ConvUTF8ToStr>
 8003e58:	100d883a 	mov	r6,r2
 8003e5c:	800b883a 	mov	r5,r16
 8003e60:	01020074 	movhi	r4,2049
 8003e64:	211f1204 	addi	r4,r4,31816
 8003e68:	80045d40 	call	80045d4 <printf>
                		}
                        usb_task_state = USB_STATE_ADDRESSING;
 8003e6c:	00800804 	movi	r2,32
 8003e70:	d0a00405 	stb	r2,-32752(gp)
                    else {
                        usb_error = rcode;
                        last_usb_task_state = usb_task_state;
                        usb_task_state = USB_STATE_ERROR;
                    }
                    break;//case( USB_ATTACHED_SUBSTATE_GET_DEVICE_DESCRIPTOR_SIZE ):
 8003e74:	00000a06 	br	8003ea0 <USB_Task+0x46c>
                		}
                        usb_task_state = USB_STATE_ADDRESSING;

                    }
                    else {
                        usb_error = rcode;
 8003e78:	e0bfb983 	ldbu	r2,-282(fp)
 8003e7c:	d0a76145 	stb	r2,-25211(gp)
                        last_usb_task_state = usb_task_state;
 8003e80:	d0a00403 	ldbu	r2,-32752(gp)
 8003e84:	d0a75f05 	stb	r2,-25220(gp)
                        usb_task_state = USB_STATE_ERROR;
 8003e88:	00bfffc4 	movi	r2,-1
 8003e8c:	d0a00405 	stb	r2,-32752(gp)
                    }
                    break;//case( USB_ATTACHED_SUBSTATE_GET_DEVICE_DESCRIPTOR_SIZE ):
 8003e90:	00000306 	br	8003ea0 <USB_Task+0x46c>
                    break;//case( USB_STATE_ATTACHED )
                case( USB_ATTACHED_SUBSTATE_SETTLE ):   //waiting for settle timer to expire
                    if( (alt_nticks()*1000)/alt_ticks_per_second() > usb_delay ) {
                        usb_task_state = USB_ATTACHED_SUBSTATE_RESET_DEVICE;
                    }
                    break;//case( USB_ATTACHED_SUBSTATE_SETTLE )
 8003e94:	0001883a 	nop
 8003e98:	00006b06 	br	8004048 <USB_Task+0x614>
                    if(( MAXreg_rd( rHCTL ) & bmBUSRST ) == 0 ) {
                        tmpdata = MAXreg_rd( rMODE ) | bmSOFKAENAB;                 //start SOF generation
                        MAXreg_wr( rMODE, tmpdata );
                        usb_task_state = USB_ATTACHED_SUBSTATE_WAIT_SOF;
                    }
                    break;//case( USB_ATTACHED_SUBSTATE_WAIT_RESET_COMPLETE )
 8003e9c:	0001883a 	nop
                        last_usb_task_state = usb_task_state;
                        usb_task_state = USB_STATE_ERROR;
                    }
                    break;//case( USB_ATTACHED_SUBSTATE_GET_DEVICE_DESCRIPTOR_SIZE ):
            }//switch( usb_task_state )
            break;//case ( USB_STATE_ATTACHED )
 8003ea0:	00006906 	br	8004048 <USB_Task+0x614>
        case( USB_STATE_ADDRESSING ):   //give device an address
            for( i = 1; i < USB_NUMDEVICES; i++ ) {
 8003ea4:	00800044 	movi	r2,1
 8003ea8:	e0bfb905 	stb	r2,-284(fp)
 8003eac:	00002d06 	br	8003f64 <USB_Task+0x530>
                if( devtable[ i ].epinfo == NULL ) {
 8003eb0:	e0ffb903 	ldbu	r3,-284(fp)
 8003eb4:	008200b4 	movhi	r2,2050
 8003eb8:	10afa704 	addi	r2,r2,-16740
 8003ebc:	180690fa 	slli	r3,r3,3
 8003ec0:	10c5883a 	add	r2,r2,r3
 8003ec4:	10800017 	ldw	r2,0(r2)
 8003ec8:	1000231e 	bne	r2,zero,8003f58 <USB_Task+0x524>
                    devtable[ i ].epinfo = devtable[ 0 ].epinfo;        //set correct MaxPktSize
 8003ecc:	e13fb903 	ldbu	r4,-284(fp)
 8003ed0:	008200b4 	movhi	r2,2050
 8003ed4:	10afa704 	addi	r2,r2,-16740
 8003ed8:	10c00017 	ldw	r3,0(r2)
 8003edc:	008200b4 	movhi	r2,2050
 8003ee0:	10afa704 	addi	r2,r2,-16740
 8003ee4:	200890fa 	slli	r4,r4,3
 8003ee8:	1105883a 	add	r2,r2,r4
 8003eec:	10c00015 	stw	r3,0(r2)
                    //devtable[ i ].epinfo->MaxPktSize = devtable[ 0 ].epinfo->MaxPktSize;  //copy uninitialized device record to have correct MaxPktSize
                    rcode = XferSetAddr( 0, 0, i );
 8003ef0:	e0bfb903 	ldbu	r2,-284(fp)
 8003ef4:	d8000415 	stw	zero,16(sp)
 8003ef8:	d8000315 	stw	zero,12(sp)
 8003efc:	d8000215 	stw	zero,8(sp)
 8003f00:	d8000115 	stw	zero,4(sp)
 8003f04:	d8800015 	stw	r2,0(sp)
 8003f08:	01c00144 	movi	r7,5
 8003f0c:	000d883a 	mov	r6,zero
 8003f10:	000b883a 	mov	r5,zero
 8003f14:	0009883a 	mov	r4,zero
 8003f18:	80033e80 	call	80033e8 <XferCtrlReq>
 8003f1c:	e0bfb985 	stb	r2,-282(fp)
                    if( rcode == 0 ) {
 8003f20:	e0bfb983 	ldbu	r2,-282(fp)
 8003f24:	1000051e 	bne	r2,zero,8003f3c <USB_Task+0x508>
                        tmp_addr = i;
 8003f28:	e0bfb903 	ldbu	r2,-284(fp)
 8003f2c:	d0a76105 	stb	r2,-25212(gp)
                        usb_task_state = USB_STATE_CONFIGURING;
 8003f30:	00800c04 	movi	r2,48
 8003f34:	d0a00405 	stb	r2,-32752(gp)
                    else {
                        usb_error = rcode;          //set address error
                        last_usb_task_state = usb_task_state;
                        usb_task_state = USB_STATE_ERROR;
                    }
                    break;  //break if address assigned or error occurred during address assignment attempt
 8003f38:	00000d06 	br	8003f70 <USB_Task+0x53c>
                    if( rcode == 0 ) {
                        tmp_addr = i;
                        usb_task_state = USB_STATE_CONFIGURING;
                    }
                    else {
                        usb_error = rcode;          //set address error
 8003f3c:	e0bfb983 	ldbu	r2,-282(fp)
 8003f40:	d0a76145 	stb	r2,-25211(gp)
                        last_usb_task_state = usb_task_state;
 8003f44:	d0a00403 	ldbu	r2,-32752(gp)
 8003f48:	d0a75f05 	stb	r2,-25220(gp)
                        usb_task_state = USB_STATE_ERROR;
 8003f4c:	00bfffc4 	movi	r2,-1
 8003f50:	d0a00405 	stb	r2,-32752(gp)
                    }
                    break;  //break if address assigned or error occurred during address assignment attempt
 8003f54:	00000606 	br	8003f70 <USB_Task+0x53c>
                    }
                    break;//case( USB_ATTACHED_SUBSTATE_GET_DEVICE_DESCRIPTOR_SIZE ):
            }//switch( usb_task_state )
            break;//case ( USB_STATE_ATTACHED )
        case( USB_STATE_ADDRESSING ):   //give device an address
            for( i = 1; i < USB_NUMDEVICES; i++ ) {
 8003f58:	e0bfb903 	ldbu	r2,-284(fp)
 8003f5c:	10800044 	addi	r2,r2,1
 8003f60:	e0bfb905 	stb	r2,-284(fp)
 8003f64:	e0bfb903 	ldbu	r2,-284(fp)
 8003f68:	10800230 	cmpltui	r2,r2,8
 8003f6c:	103fd01e 	bne	r2,zero,8003eb0 <__alt_data_end+0xfc003eb0>
                        usb_task_state = USB_STATE_ERROR;
                    }
                    break;  //break if address assigned or error occurred during address assignment attempt
                }
            }
            if( usb_task_state == USB_STATE_ADDRESSING ) {
 8003f70:	d0a00403 	ldbu	r2,-32752(gp)
 8003f74:	10803fcc 	andi	r2,r2,255
 8003f78:	10800818 	cmpnei	r2,r2,32
 8003f7c:	1000341e 	bne	r2,zero,8004050 <USB_Task+0x61c>
                usb_error = 0xfe;
 8003f80:	00bfff84 	movi	r2,-2
 8003f84:	d0a76145 	stb	r2,-25211(gp)
                last_usb_task_state = usb_task_state;
 8003f88:	d0a00403 	ldbu	r2,-32752(gp)
 8003f8c:	d0a75f05 	stb	r2,-25220(gp)
                usb_task_state = USB_STATE_ERROR;
 8003f90:	00bfffc4 	movi	r2,-1
 8003f94:	d0a00405 	stb	r2,-32752(gp)
            }
            break;//case ( USB_STATE_ADDRESSING )
 8003f98:	00002d06 	br	8004050 <USB_Task+0x61c>
        case( USB_STATE_CONFIGURING ):              //checking for driver
			//run device class probes until one returns TRUE
            for( i = 0; i < USB_NUMCLASSES; i++ ) {
 8003f9c:	e03fb905 	stb	zero,-284(fp)
 8003fa0:	00001706 	br	8004000 <USB_Task+0x5cc>
                rcode = ClientDriverTable[ i ].Initialize( tmp_addr, 0 );
 8003fa4:	e0bfb903 	ldbu	r2,-284(fp)
 8003fa8:	040200b4 	movhi	r16,2050
 8003fac:	84206004 	addi	r16,r16,-32384
 8003fb0:	01400304 	movi	r5,12
 8003fb4:	1009883a 	mov	r4,r2
 8003fb8:	80044340 	call	8004434 <__mulsi3>
 8003fbc:	8085883a 	add	r2,r16,r2
 8003fc0:	10800017 	ldw	r2,0(r2)
 8003fc4:	d0e76103 	ldbu	r3,-25212(gp)
 8003fc8:	18c03fcc 	andi	r3,r3,255
 8003fcc:	000b883a 	mov	r5,zero
 8003fd0:	1809883a 	mov	r4,r3
 8003fd4:	103ee83a 	callr	r2
 8003fd8:	e0bfb985 	stb	r2,-282(fp)
                if( rcode == TRUE ) {
 8003fdc:	e0bfb983 	ldbu	r2,-282(fp)
 8003fe0:	10800058 	cmpnei	r2,r2,1
 8003fe4:	1000031e 	bne	r2,zero,8003ff4 <USB_Task+0x5c0>
			        usb_task_state = USB_STATE_RUNNING;
 8003fe8:	00801004 	movi	r2,64
 8003fec:	d0a00405 	stb	r2,-32752(gp)
                    break;
 8003ff0:	00000606 	br	800400c <USB_Task+0x5d8>
                usb_task_state = USB_STATE_ERROR;
            }
            break;//case ( USB_STATE_ADDRESSING )
        case( USB_STATE_CONFIGURING ):              //checking for driver
			//run device class probes until one returns TRUE
            for( i = 0; i < USB_NUMCLASSES; i++ ) {
 8003ff4:	e0bfb903 	ldbu	r2,-284(fp)
 8003ff8:	10800044 	addi	r2,r2,1
 8003ffc:	e0bfb905 	stb	r2,-284(fp)
 8004000:	e0bfb903 	ldbu	r2,-284(fp)
 8004004:	10800130 	cmpltui	r2,r2,4
 8004008:	103fe61e 	bne	r2,zero,8003fa4 <__alt_data_end+0xfc003fa4>
                if( rcode == TRUE ) {
			        usb_task_state = USB_STATE_RUNNING;
                    break;
                }
            }
            if( usb_task_state == USB_STATE_CONFIGURING ) {
 800400c:	d0a00403 	ldbu	r2,-32752(gp)
 8004010:	10803fcc 	andi	r2,r2,255
 8004014:	10800c18 	cmpnei	r2,r2,48
 8004018:	10000f1e 	bne	r2,zero,8004058 <USB_Task+0x624>
                usb_error = 0xfd;
 800401c:	00bfff44 	movi	r2,-3
 8004020:	d0a76145 	stb	r2,-25211(gp)
                last_usb_task_state = usb_task_state;
 8004024:	d0a00403 	ldbu	r2,-32752(gp)
 8004028:	d0a75f05 	stb	r2,-25220(gp)
                usb_task_state = USB_STATE_ERROR;
 800402c:	00bfffc4 	movi	r2,-1
 8004030:	d0a00405 	stb	r2,-32752(gp)
            }
            break;//( USB_STATE_CONFIGURING )
 8004034:	00000806 	br	8004058 <USB_Task+0x624>
        case( USB_STATE_RUNNING ):
          //vTaskDelay( LED_RATE );
            break;//( USB_STATE_RUNNING )
 8004038:	0001883a 	nop
 800403c:	00000706 	br	800405c <USB_Task+0x628>
        case( USB_STATE_ERROR ):
            //vTaskDelay( LED_RATE ); //stay here if error
            break;//( USB_STATE_ERROR )
 8004040:	0001883a 	nop
 8004044:	00000506 	br	800405c <USB_Task+0x628>
                        last_usb_task_state = usb_task_state;
                        usb_task_state = USB_STATE_ERROR;
                    }
                    break;//case( USB_ATTACHED_SUBSTATE_GET_DEVICE_DESCRIPTOR_SIZE ):
            }//switch( usb_task_state )
            break;//case ( USB_STATE_ATTACHED )
 8004048:	0001883a 	nop
 800404c:	00000306 	br	800405c <USB_Task+0x628>
            if( usb_task_state == USB_STATE_ADDRESSING ) {
                usb_error = 0xfe;
                last_usb_task_state = usb_task_state;
                usb_task_state = USB_STATE_ERROR;
            }
            break;//case ( USB_STATE_ADDRESSING )
 8004050:	0001883a 	nop
 8004054:	00000106 	br	800405c <USB_Task+0x628>
            if( usb_task_state == USB_STATE_CONFIGURING ) {
                usb_error = 0xfd;
                last_usb_task_state = usb_task_state;
                usb_task_state = USB_STATE_ERROR;
            }
            break;//( USB_STATE_CONFIGURING )
 8004058:	0001883a 	nop
            break;//( USB_STATE_ERROR )
        default:
            //Should never get here
            break;
    }//switch( usb_task_state & STATE_MASK )
}
 800405c:	0001883a 	nop
 8004060:	e6ffff04 	addi	sp,fp,-4
 8004064:	dfc00217 	ldw	ra,8(sp)
 8004068:	df000117 	ldw	fp,4(sp)
 800406c:	dc000017 	ldw	r16,0(sp)
 8004070:	dec00304 	addi	sp,sp,12
 8004074:	f800283a 	ret

08004078 <MSDProbe>:

//place-holders for MSD (mass-storage device) drivers, we don't have them ported.
//returns TRUE if device is successfully identified and configured, otherwise returns FALSE
BOOL MSDProbe( BYTE addr, DWORD flags )
{
 8004078:	defffd04 	addi	sp,sp,-12
 800407c:	df000215 	stw	fp,8(sp)
 8004080:	df000204 	addi	fp,sp,8
 8004084:	2005883a 	mov	r2,r4
 8004088:	e17fff15 	stw	r5,-4(fp)
 800408c:	e0bffe05 	stb	r2,-8(fp)
    return( FALSE );
 8004090:	0005883a 	mov	r2,zero
}
 8004094:	e037883a 	mov	sp,fp
 8004098:	df000017 	ldw	fp,0(sp)
 800409c:	dec00104 	addi	sp,sp,4
 80040a0:	f800283a 	ret

080040a4 <MSDEventHandler>:

BOOL MSDEventHandler( BYTE address, BYTE event, void *data, DWORD size )
{
 80040a4:	defffb04 	addi	sp,sp,-20
